; Listing generated by Microsoft (R) Optimizing Compiler Version 19.29.30146.0 

include listing.inc

INCLUDELIB LIBCMTD
INCLUDELIB OLDNAMES

CONST	SEGMENT
$SG40962 DB	'-Y ', 00H
$SG40964 DB	'+X ', 00H
$SG41028 DB	'S', 080H, 0f6H, '4', 00H
$SG40479 DB	00H
	ORG $+2
$SG41067 DB	'too large', 00H
	ORG $+2
$SG41164 DB	'rb', 00H
	ORG $+1
$SG41069 DB	'too large', 00H
	ORG $+2
$SG41181 DB	'rb', 00H
	ORG $+1
$SG41072 DB	'too large', 00H
	ORG $+2
$SG41315 DB	'0', 00H, 00H, 00H
$SG41074 DB	'outofmem', 00H
	ORG $+3
$SG41592 DB	'0', 00H, 00H, 00H
$SG41127 DB	'max value > 65535', 00H
	ORG $+2
$SG41610 DB	'0', 00H, 00H, 00H
$SG41149 DB	'unknown image type', 00H
	ORG $+1
$SG41825 DB	'0', 00H, 00H, 00H
$SG41166 DB	'can''t fopen', 00H
$SG35542 DB	'rb', 00H
	ORG $+1
$SG41183 DB	'can''t fopen', 00H
	ORG $+4
$SG41248 DB	'W', 00H, ':', 00H, '\', 00H, 'n', 00H, 'e', 00H, 'w', 00H
	DB	'-', 00H, 'h', 00H, 'o', 00H, 'r', 00H, 'i', 00H, 'z', 00H, 'o'
	DB	00H, 'n', 00H, 's', 00H, '\', 00H, 'c', 00H, 'o', 00H, 'd', 00H
	DB	'e', 00H, '\', 00H, 's', 00H, 't', 00H, 'b', 00H, '_', 00H, 't'
	DB	00H, 'r', 00H, 'u', 00H, 'e', 00H, 't', 00H, 'y', 00H, 'p', 00H
	DB	'e', 00H, '.', 00H, 'h', 00H, 00H, 00H
$SG41249 DB	'!', 00H, '(', 00H, 'o', 00H, ' ', 00H, '>', 00H, ' ', 00H
	DB	'b', 00H, '-', 00H, '>', 00H, 's', 00H, 'i', 00H, 'z', 00H, 'e'
	DB	00H, ' ', 00H, '|', 00H, '|', 00H, ' ', 00H, 'o', 00H, ' ', 00H
	DB	'<', 00H, ' ', 00H, '0', 00H, ')', 00H, 00H, 00H
$SG41266 DB	'n', 00H, ' ', 00H, '>', 00H, '=', 00H, ' ', 00H, '1', 00H
	DB	' ', 00H, '&', 00H, '&', 00H, ' ', 00H, 'n', 00H, ' ', 00H, '<'
	DB	00H, '=', 00H, ' ', 00H, '4', 00H, 00H, 00H
	ORG $+6
$SG41265 DB	'W', 00H, ':', 00H, '\', 00H, 'n', 00H, 'e', 00H, 'w', 00H
	DB	'-', 00H, 'h', 00H, 'o', 00H, 'r', 00H, 'i', 00H, 'z', 00H, 'o'
	DB	00H, 'n', 00H, 's', 00H, '\', 00H, 'c', 00H, 'o', 00H, 'd', 00H
	DB	'e', 00H, '\', 00H, 's', 00H, 't', 00H, 'b', 00H, '_', 00H, 't'
	DB	00H, 'r', 00H, 'u', 00H, 'e', 00H, 't', 00H, 'y', 00H, 'p', 00H
	DB	'e', 00H, '.', 00H, 'h', 00H, 00H, 00H
$SG41277 DB	's', 00H, 'i', 00H, 'z', 00H, 'e', 00H, ' ', 00H, '<', 00H
	DB	' ', 00H, '0', 00H, 'x', 00H, '4', 00H, '0', 00H, '0', 00H, '0'
	DB	00H, '0', 00H, '0', 00H, '0', 00H, '0', 00H, 00H, 00H
	ORG $+4
$SG41276 DB	'W', 00H, ':', 00H, '\', 00H, 'n', 00H, 'e', 00H, 'w', 00H
	DB	'-', 00H, 'h', 00H, 'o', 00H, 'r', 00H, 'i', 00H, 'z', 00H, 'o'
	DB	00H, 'n', 00H, 's', 00H, '\', 00H, 'c', 00H, 'o', 00H, 'd', 00H
	DB	'e', 00H, '\', 00H, 's', 00H, 't', 00H, 'b', 00H, '_', 00H, 't'
	DB	00H, 'r', 00H, 'u', 00H, 'e', 00H, 't', 00H, 'y', 00H, 'p', 00H
	DB	'e', 00H, '.', 00H, 'h', 00H, 00H, 00H
$SG41326 DB	'b', 00H, '0', 00H, ' ', 00H, '>', 00H, '=', 00H, ' ', 00H
	DB	'2', 00H, '8', 00H, 00H, 00H
	ORG $+6
$SG41297 DB	'W', 00H, ':', 00H, '\', 00H, 'n', 00H, 'e', 00H, 'w', 00H
	DB	'-', 00H, 'h', 00H, 'o', 00H, 'r', 00H, 'i', 00H, 'z', 00H, 'o'
	DB	00H, 'n', 00H, 's', 00H, '\', 00H, 'c', 00H, 'o', 00H, 'd', 00H
	DB	'e', 00H, '\', 00H, 's', 00H, 't', 00H, 'b', 00H, '_', 00H, 't'
	DB	00H, 'r', 00H, 'u', 00H, 'e', 00H, 't', 00H, 'y', 00H, 'p', 00H
	DB	'e', 00H, '.', 00H, 'h', 00H, 00H, 00H
$SG41298 DB	'o', 00H, 'f', 00H, 'f', 00H, 's', 00H, 'i', 00H, 'z', 00H
	DB	'e', 00H, ' ', 00H, '>', 00H, '=', 00H, ' ', 00H, '1', 00H, ' '
	DB	00H, '&', 00H, '&', 00H, ' ', 00H, 'o', 00H, 'f', 00H, 'f', 00H
	DB	's', 00H, 'i', 00H, 'z', 00H, 'e', 00H, ' ', 00H, '<', 00H, '='
	DB	00H, ' ', 00H, '4', 00H, 00H, 00H
	ORG $+6
$SG41375 DB	'i', 00H, ' ', 00H, '>', 00H, '=', 00H, ' ', 00H, '0', 00H
	DB	' ', 00H, '&', 00H, '&', 00H, ' ', 00H, 'i', 00H, ' ', 00H, '<'
	DB	00H, ' ', 00H, 'c', 00H, 'o', 00H, 'u', 00H, 'n', 00H, 't', 00H
	DB	00H, 00H
$SG41314 DB	'W', 00H, ':', 00H, '\', 00H, 'n', 00H, 'e', 00H, 'w', 00H
	DB	'-', 00H, 'h', 00H, 'o', 00H, 'r', 00H, 'i', 00H, 'z', 00H, 'o'
	DB	00H, 'n', 00H, 's', 00H, '\', 00H, 'c', 00H, 'o', 00H, 'd', 00H
	DB	'e', 00H, '\', 00H, 's', 00H, 't', 00H, 'b', 00H, '_', 00H, 't'
	DB	00H, 'r', 00H, 'u', 00H, 'e', 00H, 't', 00H, 'y', 00H, 'p', 00H
	DB	'e', 00H, '.', 00H, 'h', 00H, 00H, 00H
$SG41395 DB	'typ1', 00H
	ORG $+3
$SG41325 DB	'W', 00H, ':', 00H, '\', 00H, 'n', 00H, 'e', 00H, 'w', 00H
	DB	'-', 00H, 'h', 00H, 'o', 00H, 'r', 00H, 'i', 00H, 'z', 00H, 'o'
	DB	00H, 'n', 00H, 's', 00H, '\', 00H, 'c', 00H, 'o', 00H, 'd', 00H
	DB	'e', 00H, '\', 00H, 's', 00H, 't', 00H, 'b', 00H, '_', 00H, 't'
	DB	00H, 'r', 00H, 'u', 00H, 'e', 00H, 't', 00H, 'y', 00H, 'p', 00H
	DB	'e', 00H, '.', 00H, 'h', 00H, 00H, 00H
$SG41396 DB	'typ1', 00H
	ORG $+3
$SG41374 DB	'W', 00H, ':', 00H, '\', 00H, 'n', 00H, 'e', 00H, 'w', 00H
	DB	'-', 00H, 'h', 00H, 'o', 00H, 'r', 00H, 'i', 00H, 'z', 00H, 'o'
	DB	00H, 'n', 00H, 's', 00H, '\', 00H, 'c', 00H, 'o', 00H, 'd', 00H
	DB	'e', 00H, '\', 00H, 's', 00H, 't', 00H, 'b', 00H, '_', 00H, 't'
	DB	00H, 'r', 00H, 'u', 00H, 'e', 00H, 't', 00H, 'y', 00H, 'p', 00H
	DB	'e', 00H, '.', 00H, 'h', 00H, 00H, 00H
$SG41397 DB	'typ1', 00H
	ORG $+3
$SG41376 DB	'W', 00H, ':', 00H, '\', 00H, 'n', 00H, 'e', 00H, 'w', 00H
	DB	'-', 00H, 'h', 00H, 'o', 00H, 'r', 00H, 'i', 00H, 'z', 00H, 'o'
	DB	00H, 'n', 00H, 's', 00H, '\', 00H, 'c', 00H, 'o', 00H, 'd', 00H
	DB	'e', 00H, '\', 00H, 's', 00H, 't', 00H, 'b', 00H, '_', 00H, 't'
	DB	00H, 'r', 00H, 'u', 00H, 'e', 00H, 't', 00H, 'y', 00H, 'p', 00H
	DB	'e', 00H, '.', 00H, 'h', 00H, 00H, 00H
$SG41377 DB	'o', 00H, 'f', 00H, 'f', 00H, 's', 00H, 'i', 00H, 'z', 00H
	DB	'e', 00H, ' ', 00H, '>', 00H, '=', 00H, ' ', 00H, '1', 00H, ' '
	DB	00H, '&', 00H, '&', 00H, ' ', 00H, 'o', 00H, 'f', 00H, 'f', 00H
	DB	's', 00H, 'i', 00H, 'z', 00H, 'e', 00H, ' ', 00H, '<', 00H, '='
	DB	00H, ' ', 00H, '4', 00H, 00H, 00H
	ORG $+2
$SG41398 DB	'typ1', 00H
	ORG $+3
$SG41400 DB	'OTTO', 00H
	ORG $+3
$SG41401 DB	'OTTO', 00H
	ORG $+3
$SG41402 DB	'OTTO', 00H
	ORG $+3
$SG41403 DB	'OTTO', 00H
	ORG $+3
$SG41406 DB	'true', 00H
	ORG $+3
$SG41407 DB	'true', 00H
	ORG $+3
$SG41408 DB	'true', 00H
	ORG $+3
$SG41409 DB	'true', 00H
	ORG $+3
$SG41430 DB	'ttcf', 00H
	ORG $+3
$SG41431 DB	'ttcf', 00H
	ORG $+3
$SG41432 DB	'ttcf', 00H
	ORG $+3
$SG41433 DB	'ttcf', 00H
	ORG $+3
$SG41442 DB	'ttcf', 00H
	ORG $+3
$SG41443 DB	'ttcf', 00H
	ORG $+3
$SG41444 DB	'ttcf', 00H
	ORG $+3
$SG41445 DB	'ttcf', 00H
	ORG $+3
$SG41468 DB	'SVG ', 00H
	ORG $+3
$SG41512 DB	'cmap', 00H
	ORG $+3
$SG41513 DB	'loca', 00H
	ORG $+3
$SG41514 DB	'head', 00H
	ORG $+3
$SG41515 DB	'glyf', 00H
	ORG $+3
$SG41516 DB	'hhea', 00H
	ORG $+3
$SG41517 DB	'hmtx', 00H
	ORG $+3
$SG41518 DB	'kern', 00H
	ORG $+3
$SG41519 DB	'GPOS', 00H
	ORG $+3
$SG41525 DB	'CFF ', 00H
	ORG $+3
$SG41531 DB	'maxp', 00H
	ORG $+7
$SG41637 DB	'!', 00H, 'i', 00H, 'n', 00H, 'f', 00H, 'o', 00H, '-', 00H
	DB	'>', 00H, 'c', 00H, 'f', 00H, 'f', 00H, '.', 00H, 's', 00H, 'i'
	DB	00H, 'z', 00H, 'e', 00H, 00H, 00H
$SG42392 DB	'OS/2', 00H
	ORG $+3
$SG41591 DB	'W', 00H, ':', 00H, '\', 00H, 'n', 00H, 'e', 00H, 'w', 00H
	DB	'-', 00H, 'h', 00H, 'o', 00H, 'r', 00H, 'i', 00H, 'z', 00H, 'o'
	DB	00H, 'n', 00H, 's', 00H, '\', 00H, 'c', 00H, 'o', 00H, 'd', 00H
	DB	'e', 00H, '\', 00H, 's', 00H, 't', 00H, 'b', 00H, '_', 00H, 't'
	DB	00H, 'r', 00H, 'u', 00H, 'e', 00H, 't', 00H, 'y', 00H, 'p', 00H
	DB	'e', 00H, '.', 00H, 'h', 00H, 00H, 00H
$SG42657 DB	'x', 00H, '1', 00H, ' ', 00H, '<', 00H, '=', 00H, ' ', 00H
	DB	'x', 00H, '+', 00H, '1', 00H, 00H, 00H
	ORG $+4
$SG41609 DB	'W', 00H, ':', 00H, '\', 00H, 'n', 00H, 'e', 00H, 'w', 00H
	DB	'-', 00H, 'h', 00H, 'o', 00H, 'r', 00H, 'i', 00H, 'z', 00H, 'o'
	DB	00H, 'n', 00H, 's', 00H, '\', 00H, 'c', 00H, 'o', 00H, 'd', 00H
	DB	'e', 00H, '\', 00H, 's', 00H, 't', 00H, 'b', 00H, '_', 00H, 't'
	DB	00H, 'r', 00H, 'u', 00H, 'e', 00H, 't', 00H, 'y', 00H, 'p', 00H
	DB	'e', 00H, '.', 00H, 'h', 00H, 00H, 00H
$SG42669 DB	'x', 00H, '1', 00H, ' ', 00H, '>', 00H, '=', 00H, ' ', 00H
	DB	'x', 00H, '+', 00H, '1', 00H, 00H, 00H
	ORG $+4
$SG41636 DB	'W', 00H, ':', 00H, '\', 00H, 'n', 00H, 'e', 00H, 'w', 00H
	DB	'-', 00H, 'h', 00H, 'o', 00H, 'r', 00H, 'i', 00H, 'z', 00H, 'o'
	DB	00H, 'n', 00H, 's', 00H, '\', 00H, 'c', 00H, 'o', 00H, 'd', 00H
	DB	'e', 00H, '\', 00H, 's', 00H, 't', 00H, 'b', 00H, '_', 00H, 't'
	DB	00H, 'r', 00H, 'u', 00H, 'e', 00H, 't', 00H, 'y', 00H, 'p', 00H
	DB	'e', 00H, '.', 00H, 'h', 00H, 00H, 00H
$SG42690 DB	'b', 00H, 'o', 00H, 't', 00H, 't', 00H, 'o', 00H, 'm', 00H
	DB	'_', 00H, 'w', 00H, 'i', 00H, 'd', 00H, 't', 00H, 'h', 00H, ' '
	DB	00H, '>', 00H, '=', 00H, ' ', 00H, '0', 00H, 00H, 00H
	ORG $+4
$SG41824 DB	'W', 00H, ':', 00H, '\', 00H, 'n', 00H, 'e', 00H, 'w', 00H
	DB	'-', 00H, 'h', 00H, 'o', 00H, 'r', 00H, 'i', 00H, 'z', 00H, 'o'
	DB	00H, 'n', 00H, 's', 00H, '\', 00H, 'c', 00H, 'o', 00H, 'd', 00H
	DB	'e', 00H, '\', 00H, 's', 00H, 't', 00H, 'b', 00H, '_', 00H, 't'
	DB	00H, 'r', 00H, 'u', 00H, 'e', 00H, 't', 00H, 'y', 00H, 'p', 00H
	DB	'e', 00H, '.', 00H, 'h', 00H, 00H, 00H
$SG42788 DB	'x', 00H, ' ', 00H, '>', 00H, '=', 00H, ' ', 00H, '0', 00H
	DB	' ', 00H, '&', 00H, '&', 00H, ' ', 00H, 'x', 00H, ' ', 00H, '<'
	DB	00H, ' ', 00H, 'l', 00H, 'e', 00H, 'n', 00H, 00H, 00H
	ORG $+4
$SG42127 DB	'W', 00H, ':', 00H, '\', 00H, 'n', 00H, 'e', 00H, 'w', 00H
	DB	'-', 00H, 'h', 00H, 'o', 00H, 'r', 00H, 'i', 00H, 'z', 00H, 'o'
	DB	00H, 'n', 00H, 's', 00H, '\', 00H, 'c', 00H, 'o', 00H, 'd', 00H
	DB	'e', 00H, '\', 00H, 's', 00H, 't', 00H, 'b', 00H, '_', 00H, 't'
	DB	00H, 'r', 00H, 'u', 00H, 'e', 00H, 't', 00H, 'y', 00H, 'p', 00H
	DB	'e', 00H, '.', 00H, 'h', 00H, 00H, 00H
$SG42797 DB	'f', 00H, 'a', 00H, 'b', 00H, 's', 00H, '(', 00H, 'a', 00H
	DB	'r', 00H, 'e', 00H, 'a', 00H, ')', 00H, ' ', 00H, '<', 00H, '='
	DB	00H, ' ', 00H, '1', 00H, '.', 00H, '0', 00H, '1', 00H, 'f', 00H
	DB	00H, 00H
$SG42128 DB	'o', 00H, 'u', 00H, 't', 00H, 'p', 00H, 'u', 00H, 't', 00H
	DB	'_', 00H, 'c', 00H, 't', 00H, 'x', 00H, '.', 00H, 'n', 00H, 'u'
	DB	00H, 'm', 00H, '_', 00H, 'v', 00H, 'e', 00H, 'r', 00H, 't', 00H
	DB	'i', 00H, 'c', 00H, 'e', 00H, 's', 00H, ' ', 00H, '=', 00H, '='
	DB	00H, ' ', 00H, 'c', 00H, 'o', 00H, 'u', 00H, 'n', 00H, 't', 00H
	DB	'_', 00H, 'c', 00H, 't', 00H, 'x', 00H, '.', 00H, 'n', 00H, 'u'
	DB	00H, 'm', 00H, '_', 00H, 'v', 00H, 'e', 00H, 'r', 00H, 't', 00H
	DB	'i', 00H, 'c', 00H, 'e', 00H, 's', 00H, 00H, 00H
$SG35579 DB	'rb', 00H
	ORG $+1
$SG42647 DB	'y', 00H, '0', 00H, ' ', 00H, '<', 00H, ' ', 00H, 'y', 00H
	DB	'1', 00H, 00H, 00H
$SG42799 DB	's', 00H, 'y', 00H, '1', 00H, ' ', 00H, '>', 00H, ' ', 00H
	DB	'y', 00H, '_', 00H, 'f', 00H, 'i', 00H, 'n', 00H, 'a', 00H, 'l'
	DB	00H, '-', 00H, '0', 00H, '.', 00H, '0', 00H, '1', 00H, 'f', 00H
	DB	00H, 00H
$SG42617 DB	'W', 00H, ':', 00H, '\', 00H, 'n', 00H, 'e', 00H, 'w', 00H
	DB	'-', 00H, 'h', 00H, 'o', 00H, 'r', 00H, 'i', 00H, 'z', 00H, 'o'
	DB	00H, 'n', 00H, 's', 00H, '\', 00H, 'c', 00H, 'o', 00H, 'd', 00H
	DB	'e', 00H, '\', 00H, 's', 00H, 't', 00H, 'b', 00H, '_', 00H, 't'
	DB	00H, 'r', 00H, 'u', 00H, 'e', 00H, 't', 00H, 'y', 00H, 'p', 00H
	DB	'e', 00H, '.', 00H, 'h', 00H, 00H, 00H
$SG42618 DB	'z', 00H, ' ', 00H, '!', 00H, '=', 00H, ' ', 00H, '0', 00H
	DB	00H, 00H
	ORG $+2
$SG42661 DB	'x', 00H, '1', 00H, ' ', 00H, '>', 00H, '=', 00H, ' ', 00H
	DB	'x', 00H, 00H, 00H
$SG42873 DB	'z', 00H, '-', 00H, '>', 00H, 'e', 00H, 'y', 00H, ' ', 00H
	DB	'>', 00H, '=', 00H, ' ', 00H, 's', 00H, 'c', 00H, 'a', 00H, 'n'
	DB	00H, '_', 00H, 'y', 00H, '_', 00H, 't', 00H, 'o', 00H, 'p', 00H
	DB	00H, 00H
$SG42646 DB	'W', 00H, ':', 00H, '\', 00H, 'n', 00H, 'e', 00H, 'w', 00H
	DB	'-', 00H, 'h', 00H, 'o', 00H, 'r', 00H, 'i', 00H, 'z', 00H, 'o'
	DB	00H, 'n', 00H, 's', 00H, '\', 00H, 'c', 00H, 'o', 00H, 'd', 00H
	DB	'e', 00H, '\', 00H, 's', 00H, 't', 00H, 'b', 00H, '_', 00H, 't'
	DB	00H, 'r', 00H, 'u', 00H, 'e', 00H, 't', 00H, 'y', 00H, 'p', 00H
	DB	'e', 00H, '.', 00H, 'h', 00H, 00H, 00H
$SG43295 DB	'x', 00H, '+', 00H, 'g', 00H, 'w', 00H, ' ', 00H, '<', 00H
	DB	' ', 00H, 'p', 00H, 'w', 00H, 00H, 00H
	ORG $+4
$SG42648 DB	'W', 00H, ':', 00H, '\', 00H, 'n', 00H, 'e', 00H, 'w', 00H
	DB	'-', 00H, 'h', 00H, 'o', 00H, 'r', 00H, 'i', 00H, 'z', 00H, 'o'
	DB	00H, 'n', 00H, 's', 00H, '\', 00H, 'c', 00H, 'o', 00H, 'd', 00H
	DB	'e', 00H, '\', 00H, 's', 00H, 't', 00H, 'b', 00H, '_', 00H, 't'
	DB	00H, 'r', 00H, 'u', 00H, 'e', 00H, 't', 00H, 'y', 00H, 'p', 00H
	DB	'e', 00H, '.', 00H, 'h', 00H, 00H, 00H
$SG42649 DB	'e', 00H, '-', 00H, '>', 00H, 's', 00H, 'y', 00H, ' ', 00H
	DB	'<', 00H, '=', 00H, ' ', 00H, 'e', 00H, '-', 00H, '>', 00H, 'e'
	DB	00H, 'y', 00H, 00H, 00H
	ORG $+2
$SG42665 DB	'x', 00H, '1', 00H, ' ', 00H, '<', 00H, '=', 00H, ' ', 00H
	DB	'x', 00H, 00H, 00H
$SG43297 DB	'y', 00H, '+', 00H, 'g', 00H, 'h', 00H, ' ', 00H, '<', 00H
	DB	' ', 00H, 'p', 00H, 'h', 00H, 00H, 00H
	ORG $+4
$SG42656 DB	'W', 00H, ':', 00H, '\', 00H, 'n', 00H, 'e', 00H, 'w', 00H
	DB	'-', 00H, 'h', 00H, 'o', 00H, 'r', 00H, 'i', 00H, 'z', 00H, 'o'
	DB	00H, 'n', 00H, 's', 00H, '\', 00H, 'c', 00H, 'o', 00H, 'd', 00H
	DB	'e', 00H, '\', 00H, 's', 00H, 't', 00H, 'b', 00H, '_', 00H, 't'
	DB	00H, 'r', 00H, 'u', 00H, 'e', 00H, 't', 00H, 'y', 00H, 'p', 00H
	DB	'e', 00H, '.', 00H, 'h', 00H, 00H, 00H
$SG43426 DB	'h', 00H, '_', 00H, 'o', 00H, 'v', 00H, 'e', 00H, 'r', 00H
	DB	's', 00H, 'a', 00H, 'm', 00H, 'p', 00H, 'l', 00H, 'e', 00H, ' '
	DB	00H, '<', 00H, '=', 00H, ' ', 00H, '8', 00H, 00H, 00H
	ORG $+4
$SG42660 DB	'W', 00H, ':', 00H, '\', 00H, 'n', 00H, 'e', 00H, 'w', 00H
	DB	'-', 00H, 'h', 00H, 'o', 00H, 'r', 00H, 'i', 00H, 'z', 00H, 'o'
	DB	00H, 'n', 00H, 's', 00H, '\', 00H, 'c', 00H, 'o', 00H, 'd', 00H
	DB	'e', 00H, '\', 00H, 's', 00H, 't', 00H, 'b', 00H, '_', 00H, 't'
	DB	00H, 'r', 00H, 'u', 00H, 'e', 00H, 't', 00H, 'y', 00H, 'p', 00H
	DB	'e', 00H, '.', 00H, 'h', 00H, 00H, 00H
$SG43428 DB	'v', 00H, '_', 00H, 'o', 00H, 'v', 00H, 'e', 00H, 'r', 00H
	DB	's', 00H, 'a', 00H, 'm', 00H, 'p', 00H, 'l', 00H, 'e', 00H, ' '
	DB	00H, '<', 00H, '=', 00H, ' ', 00H, '8', 00H, 00H, 00H
	ORG $+4
$SG42664 DB	'W', 00H, ':', 00H, '\', 00H, 'n', 00H, 'e', 00H, 'w', 00H
	DB	'-', 00H, 'h', 00H, 'o', 00H, 'r', 00H, 'i', 00H, 'z', 00H, 'o'
	DB	00H, 'n', 00H, 's', 00H, '\', 00H, 'c', 00H, 'o', 00H, 'd', 00H
	DB	'e', 00H, '\', 00H, 's', 00H, 't', 00H, 'b', 00H, '_', 00H, 't'
	DB	00H, 'r', 00H, 'u', 00H, 'e', 00H, 't', 00H, 'y', 00H, 'p', 00H
	DB	'e', 00H, '.', 00H, 'h', 00H, 00H, 00H
$SG35406 DB	'unknown image type', 00H
	ORG $+5
$SG42668 DB	'W', 00H, ':', 00H, '\', 00H, 'n', 00H, 'e', 00H, 'w', 00H
	DB	'-', 00H, 'h', 00H, 'o', 00H, 'r', 00H, 'i', 00H, 'z', 00H, 'o'
	DB	00H, 'n', 00H, 's', 00H, '\', 00H, 'c', 00H, 'o', 00H, 'd', 00H
	DB	'e', 00H, '\', 00H, 's', 00H, 't', 00H, 'b', 00H, '_', 00H, 't'
	DB	00H, 'r', 00H, 'u', 00H, 'e', 00H, 't', 00H, 'y', 00H, 'p', 00H
	DB	'e', 00H, '.', 00H, 'h', 00H, 00H, 00H
$SG35649 DB	'unknown image type', 00H
	ORG $+5
$SG42670 DB	'W', 00H, ':', 00H, '\', 00H, 'n', 00H, 'e', 00H, 'w', 00H
	DB	'-', 00H, 'h', 00H, 'o', 00H, 'r', 00H, 'i', 00H, 'z', 00H, 'o'
	DB	00H, 'n', 00H, 's', 00H, '\', 00H, 'c', 00H, 'o', 00H, 'd', 00H
	DB	'e', 00H, '\', 00H, 's', 00H, 't', 00H, 'b', 00H, '_', 00H, 't'
	DB	00H, 'r', 00H, 'u', 00H, 'e', 00H, 't', 00H, 'y', 00H, 'p', 00H
	DB	'e', 00H, '.', 00H, 'h', 00H, 00H, 00H
$SG42671 DB	'x', 00H, '1', 00H, ' ', 00H, '>', 00H, '=', 00H, ' ', 00H
	DB	'x', 00H, ' ', 00H, '&', 00H, '&', 00H, ' ', 00H, 'x', 00H, '1'
	DB	00H, ' ', 00H, '<', 00H, '=', 00H, ' ', 00H, 'x', 00H, '+', 00H
	DB	'1', 00H, 00H, 00H
	ORG $+6
$SG42688 DB	't', 00H, 'o', 00H, 'p', 00H, '_', 00H, 'w', 00H, 'i', 00H
	DB	'd', 00H, 't', 00H, 'h', 00H, ' ', 00H, '>', 00H, '=', 00H, ' '
	DB	00H, '0', 00H, 00H, 00H
	ORG $+2
$SG42791 DB	'd', 00H, 'y', 00H, ' ', 00H, '>', 00H, '=', 00H, ' ', 00H
	DB	'0', 00H, 00H, 00H
$SG35680 DB	'rb', 00H
	ORG $+5
$SG42676 DB	'W', 00H, ':', 00H, '\', 00H, 'n', 00H, 'e', 00H, 'w', 00H
	DB	'-', 00H, 'h', 00H, 'o', 00H, 'r', 00H, 'i', 00H, 'z', 00H, 'o'
	DB	00H, 'n', 00H, 's', 00H, '\', 00H, 'c', 00H, 'o', 00H, 'd', 00H
	DB	'e', 00H, '\', 00H, 's', 00H, 't', 00H, 'b', 00H, '_', 00H, 't'
	DB	00H, 'r', 00H, 'u', 00H, 'e', 00H, 't', 00H, 'y', 00H, 'p', 00H
	DB	'e', 00H, '.', 00H, 'h', 00H, 00H, 00H
$SG35701 DB	'rb', 00H
	ORG $+5
$SG42677 DB	'x', 00H, '0', 00H, ' ', 00H, '>', 00H, '=', 00H, ' ', 00H
	DB	'x', 00H, ' ', 00H, '&', 00H, '&', 00H, ' ', 00H, 'x', 00H, '0'
	DB	00H, ' ', 00H, '<', 00H, '=', 00H, ' ', 00H, 'x', 00H, '+', 00H
	DB	'1', 00H, ' ', 00H, '&', 00H, '&', 00H, ' ', 00H, 'x', 00H, '1'
	DB	00H, ' ', 00H, '>', 00H, '=', 00H, ' ', 00H, 'x', 00H, ' ', 00H
	DB	'&', 00H, '&', 00H, ' ', 00H, 'x', 00H, '1', 00H, ' ', 00H, '<'
	DB	00H, '=', 00H, ' ', 00H, 'x', 00H, '+', 00H, '1', 00H, 00H, 00H
	ORG $+6
$SG42687 DB	'W', 00H, ':', 00H, '\', 00H, 'n', 00H, 'e', 00H, 'w', 00H
	DB	'-', 00H, 'h', 00H, 'o', 00H, 'r', 00H, 'i', 00H, 'z', 00H, 'o'
	DB	00H, 'n', 00H, 's', 00H, '\', 00H, 'c', 00H, 'o', 00H, 'd', 00H
	DB	'e', 00H, '\', 00H, 's', 00H, 't', 00H, 'b', 00H, '_', 00H, 't'
	DB	00H, 'r', 00H, 'u', 00H, 'e', 00H, 't', 00H, 'y', 00H, 'p', 00H
	DB	'e', 00H, '.', 00H, 'h', 00H, 00H, 00H
$SG44115 DB	'name', 00H
	ORG $+3
$SG42689 DB	'W', 00H, ':', 00H, '\', 00H, 'n', 00H, 'e', 00H, 'w', 00H
	DB	'-', 00H, 'h', 00H, 'o', 00H, 'r', 00H, 'i', 00H, 'z', 00H, 'o'
	DB	00H, 'n', 00H, 's', 00H, '\', 00H, 'c', 00H, 'o', 00H, 'd', 00H
	DB	'e', 00H, '\', 00H, 's', 00H, 't', 00H, 'b', 00H, '_', 00H, 't'
	DB	00H, 'r', 00H, 'u', 00H, 'e', 00H, 't', 00H, 'y', 00H, 'p', 00H
	DB	'e', 00H, '.', 00H, 'h', 00H, 00H, 00H
$SG44168 DB	'head', 00H
	ORG $+3
$SG42770 DB	'W', 00H, ':', 00H, '\', 00H, 'n', 00H, 'e', 00H, 'w', 00H
	DB	'-', 00H, 'h', 00H, 'o', 00H, 'r', 00H, 'i', 00H, 'z', 00H, 'o'
	DB	00H, 'n', 00H, 's', 00H, '\', 00H, 'c', 00H, 'o', 00H, 'd', 00H
	DB	'e', 00H, '\', 00H, 's', 00H, 't', 00H, 'b', 00H, '_', 00H, 't'
	DB	00H, 'r', 00H, 'u', 00H, 'e', 00H, 't', 00H, 'y', 00H, 'p', 00H
	DB	'e', 00H, '.', 00H, 'h', 00H, 00H, 00H
$SG42771 DB	'e', 00H, '-', 00H, '>', 00H, 'e', 00H, 'y', 00H, ' ', 00H
	DB	'>', 00H, '=', 00H, ' ', 00H, 'y', 00H, '_', 00H, 't', 00H, 'o'
	DB	00H, 'p', 00H, 00H, 00H
	ORG $+2
$SG42793 DB	'd', 00H, 'x', 00H, ' ', 00H, '>', 00H, '=', 00H, ' ', 00H
	DB	'0', 00H, 00H, 00H
$SG44170 DB	'name', 00H
	ORG $+3
$SG42777 DB	'W', 00H, ':', 00H, '\', 00H, 'n', 00H, 'e', 00H, 'w', 00H
	DB	'-', 00H, 'h', 00H, 'o', 00H, 'r', 00H, 'i', 00H, 'z', 00H, 'o'
	DB	00H, 'n', 00H, 's', 00H, '\', 00H, 'c', 00H, 'o', 00H, 'd', 00H
	DB	'e', 00H, '\', 00H, 's', 00H, 't', 00H, 'b', 00H, '_', 00H, 't'
	DB	00H, 'r', 00H, 'u', 00H, 'e', 00H, 't', 00H, 'y', 00H, 'p', 00H
	DB	'e', 00H, '.', 00H, 'h', 00H, 00H, 00H
$SG36175 DB	'bad code lengths', 00H
	ORG $+7
$SG42778 DB	'e', 00H, '-', 00H, '>', 00H, 's', 00H, 'y', 00H, ' ', 00H
	DB	'<', 00H, '=', 00H, ' ', 00H, 'y', 00H, '_', 00H, 'b', 00H, 'o'
	DB	00H, 't', 00H, 't', 00H, 'o', 00H, 'm', 00H, ' ', 00H, '&', 00H
	DB	'&', 00H, ' ', 00H, 'e', 00H, '-', 00H, '>', 00H, 'e', 00H, 'y'
	DB	00H, ' ', 00H, '>', 00H, '=', 00H, ' ', 00H, 'y', 00H, '_', 00H
	DB	't', 00H, 'o', 00H, 'p', 00H, 00H, 00H
$SG36277 DB	'bad huffman code', 00H
	ORG $+7
$SG42787 DB	'W', 00H, ':', 00H, '\', 00H, 'n', 00H, 'e', 00H, 'w', 00H
	DB	'-', 00H, 'h', 00H, 'o', 00H, 'r', 00H, 'i', 00H, 'z', 00H, 'o'
	DB	00H, 'n', 00H, 's', 00H, '\', 00H, 'c', 00H, 'o', 00H, 'd', 00H
	DB	'e', 00H, '\', 00H, 's', 00H, 't', 00H, 'b', 00H, '_', 00H, 't'
	DB	00H, 'r', 00H, 'u', 00H, 'e', 00H, 't', 00H, 'y', 00H, 'p', 00H
	DB	'e', 00H, '.', 00H, 'h', 00H, 00H, 00H
$SG36282 DB	'bad huffman code', 00H
	ORG $+7
$SG42790 DB	'W', 00H, ':', 00H, '\', 00H, 'n', 00H, 'e', 00H, 'w', 00H
	DB	'-', 00H, 'h', 00H, 'o', 00H, 'r', 00H, 'i', 00H, 'z', 00H, 'o'
	DB	00H, 'n', 00H, 's', 00H, '\', 00H, 'c', 00H, 'o', 00H, 'd', 00H
	DB	'e', 00H, '\', 00H, 's', 00H, 't', 00H, 'b', 00H, '_', 00H, 't'
	DB	00H, 'r', 00H, 'u', 00H, 'e', 00H, 't', 00H, 'y', 00H, 'p', 00H
	DB	'e', 00H, '.', 00H, 'h', 00H, 00H, 00H
$SG36298 DB	'can''t merge dc and ac', 00H
	ORG $+2
$SG42792 DB	'W', 00H, ':', 00H, '\', 00H, 'n', 00H, 'e', 00H, 'w', 00H
	DB	'-', 00H, 'h', 00H, 'o', 00H, 'r', 00H, 'i', 00H, 'z', 00H, 'o'
	DB	00H, 'n', 00H, 's', 00H, '\', 00H, 'c', 00H, 'o', 00H, 'd', 00H
	DB	'e', 00H, '\', 00H, 's', 00H, 't', 00H, 'b', 00H, '_', 00H, 't'
	DB	00H, 'r', 00H, 'u', 00H, 'e', 00H, 't', 00H, 'y', 00H, 'p', 00H
	DB	'e', 00H, '.', 00H, 'h', 00H, 00H, 00H
$SG36304 DB	'can''t merge dc and ac', 00H
	ORG $+2
$SG42796 DB	'W', 00H, ':', 00H, '\', 00H, 'n', 00H, 'e', 00H, 'w', 00H
	DB	'-', 00H, 'h', 00H, 'o', 00H, 'r', 00H, 'i', 00H, 'z', 00H, 'o'
	DB	00H, 'n', 00H, 's', 00H, '\', 00H, 'c', 00H, 'o', 00H, 'd', 00H
	DB	'e', 00H, '\', 00H, 's', 00H, 't', 00H, 'b', 00H, '_', 00H, 't'
	DB	00H, 'r', 00H, 'u', 00H, 'e', 00H, 't', 00H, 'y', 00H, 'p', 00H
	DB	'e', 00H, '.', 00H, 'h', 00H, 00H, 00H
$SG36341 DB	'can''t merge dc and ac', 00H
	ORG $+2
$SG42798 DB	'W', 00H, ':', 00H, '\', 00H, 'n', 00H, 'e', 00H, 'w', 00H
	DB	'-', 00H, 'h', 00H, 'o', 00H, 'r', 00H, 'i', 00H, 'z', 00H, 'o'
	DB	00H, 'n', 00H, 's', 00H, '\', 00H, 'c', 00H, 'o', 00H, 'd', 00H
	DB	'e', 00H, '\', 00H, 's', 00H, 't', 00H, 'b', 00H, '_', 00H, 't'
	DB	00H, 'r', 00H, 'u', 00H, 'e', 00H, 't', 00H, 'y', 00H, 'p', 00H
	DB	'e', 00H, '.', 00H, 'h', 00H, 00H, 00H
$SG36349 DB	'bad huffman code', 00H
	ORG $+7
$SG42866 DB	'W', 00H, ':', 00H, '\', 00H, 'n', 00H, 'e', 00H, 'w', 00H
	DB	'-', 00H, 'h', 00H, 'o', 00H, 'r', 00H, 'i', 00H, 'z', 00H, 'o'
	DB	00H, 'n', 00H, 's', 00H, '\', 00H, 'c', 00H, 'o', 00H, 'd', 00H
	DB	'e', 00H, '\', 00H, 's', 00H, 't', 00H, 'b', 00H, '_', 00H, 't'
	DB	00H, 'r', 00H, 'u', 00H, 'e', 00H, 't', 00H, 'y', 00H, 'p', 00H
	DB	'e', 00H, '.', 00H, 'h', 00H, 00H, 00H
$SG42867 DB	'z', 00H, '-', 00H, '>', 00H, 'd', 00H, 'i', 00H, 'r', 00H
	DB	'e', 00H, 'c', 00H, 't', 00H, 'i', 00H, 'o', 00H, 'n', 00H, 00H
	DB	00H
	ORG $+6
$SG43484 DB	'p', 00H, 'i', 00H, 'x', 00H, 'e', 00H, 'l', 00H, 's', 00H
	DB	'[', 00H, 'i', 00H, ']', 00H, ' ', 00H, '=', 00H, '=', 00H, ' '
	DB	00H, '0', 00H, 00H, 00H
	ORG $+2
$SG36362 DB	'bad huffman code', 00H
	ORG $+7
$SG42872 DB	'W', 00H, ':', 00H, '\', 00H, 'n', 00H, 'e', 00H, 'w', 00H
	DB	'-', 00H, 'h', 00H, 'o', 00H, 'r', 00H, 'i', 00H, 'z', 00H, 'o'
	DB	00H, 'n', 00H, 's', 00H, '\', 00H, 'c', 00H, 'o', 00H, 'd', 00H
	DB	'e', 00H, '\', 00H, 's', 00H, 't', 00H, 'b', 00H, '_', 00H, 't'
	DB	00H, 'r', 00H, 'u', 00H, 'e', 00H, 't', 00H, 'y', 00H, 'p', 00H
	DB	'e', 00H, '.', 00H, 'h', 00H, 00H, 00H
$SG36369 DB	'bad huffman code', 00H
	ORG $+7
$SG43294 DB	'W', 00H, ':', 00H, '\', 00H, 'n', 00H, 'e', 00H, 'w', 00H
	DB	'-', 00H, 'h', 00H, 'o', 00H, 'r', 00H, 'i', 00H, 'z', 00H, 'o'
	DB	00H, 'n', 00H, 's', 00H, '\', 00H, 'c', 00H, 'o', 00H, 'd', 00H
	DB	'e', 00H, '\', 00H, 's', 00H, 't', 00H, 'b', 00H, '_', 00H, 't'
	DB	00H, 'r', 00H, 'u', 00H, 'e', 00H, 't', 00H, 'y', 00H, 'p', 00H
	DB	'e', 00H, '.', 00H, 'h', 00H, 00H, 00H
$SG37655 DB	'bad SOS component count', 00H
$SG43296 DB	'W', 00H, ':', 00H, '\', 00H, 'n', 00H, 'e', 00H, 'w', 00H
	DB	'-', 00H, 'h', 00H, 'o', 00H, 'r', 00H, 'i', 00H, 'z', 00H, 'o'
	DB	00H, 'n', 00H, 's', 00H, '\', 00H, 'c', 00H, 'o', 00H, 'd', 00H
	DB	'e', 00H, '\', 00H, 's', 00H, 't', 00H, 'b', 00H, '_', 00H, 't'
	DB	00H, 'r', 00H, 'u', 00H, 'e', 00H, 't', 00H, 'y', 00H, 'p', 00H
	DB	'e', 00H, '.', 00H, 'h', 00H, 00H, 00H
$SG37668 DB	'bad SOS', 00H
$SG43425 DB	'W', 00H, ':', 00H, '\', 00H, 'n', 00H, 'e', 00H, 'w', 00H
	DB	'-', 00H, 'h', 00H, 'o', 00H, 'r', 00H, 'i', 00H, 'z', 00H, 'o'
	DB	00H, 'n', 00H, 's', 00H, '\', 00H, 'c', 00H, 'o', 00H, 'd', 00H
	DB	'e', 00H, '\', 00H, 's', 00H, 't', 00H, 'b', 00H, '_', 00H, 't'
	DB	00H, 'r', 00H, 'u', 00H, 'e', 00H, 't', 00H, 'y', 00H, 'p', 00H
	DB	'e', 00H, '.', 00H, 'h', 00H, 00H, 00H
$SG37670 DB	'bad SOS', 00H
$SG43427 DB	'W', 00H, ':', 00H, '\', 00H, 'n', 00H, 'e', 00H, 'w', 00H
	DB	'-', 00H, 'h', 00H, 'o', 00H, 'r', 00H, 'i', 00H, 'z', 00H, 'o'
	DB	00H, 'n', 00H, 's', 00H, '\', 00H, 'c', 00H, 'o', 00H, 'd', 00H
	DB	'e', 00H, '\', 00H, 's', 00H, 't', 00H, 'b', 00H, '_', 00H, 't'
	DB	00H, 'r', 00H, 'u', 00H, 'e', 00H, 't', 00H, 'y', 00H, 'p', 00H
	DB	'e', 00H, '.', 00H, 'h', 00H, 00H, 00H
$SG37673 DB	'bad SOS', 00H
$SG43483 DB	'W', 00H, ':', 00H, '\', 00H, 'n', 00H, 'e', 00H, 'w', 00H
	DB	'-', 00H, 'h', 00H, 'o', 00H, 'r', 00H, 'i', 00H, 'z', 00H, 'o'
	DB	00H, 'n', 00H, 's', 00H, '\', 00H, 'c', 00H, 'o', 00H, 'd', 00H
	DB	'e', 00H, '\', 00H, 's', 00H, 't', 00H, 'b', 00H, '_', 00H, 't'
	DB	00H, 'r', 00H, 'u', 00H, 'e', 00H, 't', 00H, 'y', 00H, 'p', 00H
	DB	'e', 00H, '.', 00H, 'h', 00H, 00H, 00H
$SG37725 DB	'no header height', 00H
	ORG $+7
$SG43533 DB	'W', 00H, ':', 00H, '\', 00H, 'n', 00H, 'e', 00H, 'w', 00H
	DB	'-', 00H, 'h', 00H, 'o', 00H, 'r', 00H, 'i', 00H, 'z', 00H, 'o'
	DB	00H, 'n', 00H, 's', 00H, '\', 00H, 'c', 00H, 'o', 00H, 'd', 00H
	DB	'e', 00H, '\', 00H, 's', 00H, 't', 00H, 'b', 00H, '_', 00H, 't'
	DB	00H, 'r', 00H, 'u', 00H, 'e', 00H, 't', 00H, 'y', 00H, 'p', 00H
	DB	'e', 00H, '.', 00H, 'h', 00H, 00H, 00H
$SG43534 DB	'p', 00H, 'i', 00H, 'x', 00H, 'e', 00H, 'l', 00H, 's', 00H
	DB	'[', 00H, 'i', 00H, '*', 00H, 's', 00H, 't', 00H, 'r', 00H, 'i'
	DB	00H, 'd', 00H, 'e', 00H, '_', 00H, 'i', 00H, 'n', 00H, '_', 00H
	DB	'b', 00H, 'y', 00H, 't', 00H, 'e', 00H, 's', 00H, ']', 00H, ' '
	DB	00H, '=', 00H, '=', 00H, ' ', 00H, '0', 00H, 00H, 00H
	ORG $+2
$SG35424 DB	'outofmem', 00H
	ORG $+3
$SG37739 DB	'bad H', 00H
	ORG $+2
$SG37744 DB	'bad TQ', 00H
	ORG $+1
$SG46157 DB	'uri', 00H
$SG35443 DB	'outofmem', 00H
	ORG $+3
$SG37742 DB	'bad V', 00H
	ORG $+2
$SG37769 DB	'no SOI', 00H
	ORG $+1
$SG46158 DB	'/', 00H
	ORG $+2
$SG35544 DB	'can''t fopen', 00H
$SG46159 DB	'/', 00H
	ORG $+2
$SG35581 DB	'can''t fopen', 00H
$SG40904 DB	'-Y ', 00H
$SG35682 DB	'can''t fopen', 00H
$SG37751 DB	'bad H', 00H
	ORG $+6
$SG44013 DB	'W', 00H, ':', 00H, '\', 00H, 'n', 00H, 'e', 00H, 'w', 00H
	DB	'-', 00H, 'h', 00H, 'o', 00H, 'r', 00H, 'i', 00H, 'z', 00H, 'o'
	DB	00H, 'n', 00H, 's', 00H, '\', 00H, 'c', 00H, 'o', 00H, 'd', 00H
	DB	'e', 00H, '\', 00H, 's', 00H, 't', 00H, 'b', 00H, '_', 00H, 't'
	DB	00H, 'r', 00H, 'u', 00H, 'e', 00H, 't', 00H, 'y', 00H, 'p', 00H
	DB	'e', 00H, '.', 00H, 'h', 00H, 00H, 00H
$SG44014 DB	'i', 00H, ' ', 00H, '!', 00H, '=', 00H, ' ', 00H, '0', 00H
	DB	00H, 00H
	ORG $+2
$SG35866 DB	'outofmem', 00H
	ORG $+3
$SG37753 DB	'bad V', 00H
	ORG $+2
$SG37773 DB	'no SOF', 00H
	ORG $+1
$SG40907 DB	'+X ', 00H
$SG35881 DB	'unsupported', 00H
	ORG $+4
$SG35955 DB	'outofmem', 00H
	ORG $+7
$SG35970 DB	'unsupported', 00H
	ORG $+4
$SG35997 DB	'outofmem', 00H
	ORG $+7
$SG36029 DB	'outofmem', 00H
	ORG $+7
$SG37603 DB	'expected marker', 00H
$SG37727 DB	'0 width', 00H
?stbi__bmask@@3QBIB DD 00H				; stbi__bmask
	DD	01H
	DD	03H
	DD	07H
	DD	0fH
	DD	01fH
	DD	03fH
	DD	07fH
	DD	0ffH
	DD	01ffH
	DD	03ffH
	DD	07ffH
	DD	0fffH
	DD	01fffH
	DD	03fffH
	DD	07fffH
	DD	0ffffH
$SG46151 DB	'count', 00H
	ORG $+6
?stbi__jbias@@3QBHB DD 00H				; stbi__jbias
	DD	0ffffffffH
	DD	0fffffffdH
	DD	0fffffff9H
	DD	0fffffff1H
	DD	0ffffffe1H
	DD	0ffffffc1H
	DD	0ffffff81H
	DD	0ffffff01H
	DD	0fffffe01H
	DD	0fffffc01H
	DD	0fffff801H
	DD	0fffff001H
	DD	0ffffe001H
	DD	0ffffc001H
	DD	0ffff8001H
?stbi__jpeg_dezigzag@@3QBEB DB 00H			; stbi__jpeg_dezigzag
	DB	01H
	DB	08H
	DB	010H
	DB	09H
	DB	02H
	DB	03H
	DB	0aH
	DB	011H
	DB	018H
	DB	020H
	DB	019H
	DB	012H
	DB	0bH
	DB	04H
	DB	05H
	DB	0cH
	DB	013H
	DB	01aH
	DB	021H
	DB	028H
	DB	030H
	DB	029H
	DB	022H
	DB	01bH
	DB	014H
	DB	0dH
	DB	06H
	DB	07H
	DB	0eH
	DB	015H
	DB	01cH
	DB	023H
	DB	02aH
	DB	031H
	DB	038H
	DB	039H
	DB	032H
	DB	02bH
	DB	024H
	DB	01dH
	DB	016H
	DB	0fH
	DB	017H
	DB	01eH
	DB	025H
	DB	02cH
	DB	033H
	DB	03aH
	DB	03bH
	DB	034H
	DB	02dH
	DB	026H
	DB	01fH
	DB	027H
	DB	02eH
	DB	035H
	DB	03cH
	DB	03dH
	DB	036H
	DB	02fH
	DB	037H
	DB	03eH
	DB	03fH
	DB	03fH
	DB	03fH
	DB	03fH
	DB	03fH
	DB	03fH
	DB	03fH
	DB	03fH
	DB	03fH
	DB	03fH
	DB	03fH
	DB	03fH
	DB	03fH
	DB	03fH
	DB	03fH
	DB	03fH
	ORG $+1
$SG37606 DB	'bad DRI len', 00H
	ORG $+4
$SG37609 DB	'bad DQT type', 00H
	ORG $+3
$SG37611 DB	'bad DQT table', 00H
	ORG $+2
$SG37615 DB	'bad DHT header', 00H
	ORG $+1
$SG37627 DB	'bad COM len', 00H
	ORG $+4
$SG37628 DB	'bad APP len', 00H
	ORG $+4
$SG37636 DB	'unknown marker', 00H
	ORG $+1
$SG37657 DB	'bad SOS len', 00H
	ORG $+4
$SG37661 DB	'bad DC huff', 00H
	ORG $+4
$SG37663 DB	'bad AC huff', 00H
	ORG $+4
$SG37721 DB	'bad SOF len', 00H
	ORG $+4
$SG37723 DB	'only 8-bit', 00H
	ORG $+5
$SG37729 DB	'too large', 00H
	ORG $+6
$SG37731 DB	'too large', 00H
	ORG $+6
$SG37733 DB	'bad component count', 00H
	ORG $+4
$SG37735 DB	'bad SOF len', 00H
	ORG $+4
$SG37747 DB	'too large', 00H
	ORG $+6
$SG37755 DB	'outofmem', 00H
	ORG $+7
$SG37758 DB	'outofmem', 00H
	ORG $+7
$SG37799 DB	'bad DNL len', 00H
	ORG $+4
$SG37801 DB	'bad DNL height', 00H
	ORG $+1
$SG46149 DB	'bufferView', 00H
	ORG $+5
$SG46153 DB	'byteOffset', 00H
	ORG $+1
$SG46156 DB	'buffer', 00H
	ORG $+1
$SG46315 DB	'nodes', 00H
	ORG $+2
$SG46316 DB	'meshes', 00H
	ORG $+5
$SG46317 DB	'accessors', 00H
	ORG $+6
$SG46318 DB	'bufferViews', 00H
	ORG $+4
$SG46319 DB	'buffers', 00H
$SG46320 DB	'materials', 00H
	ORG $+2
$SG46322 DB	'mesh', 00H
	ORG $+3
$SG46323 DB	'scale', 00H
	ORG $+6
$SG46325 DB	'primitives', 00H
	ORG $+5
$SG46326 DB	'attributes', 00H
	ORG $+5
$SG46327 DB	'POSITION', 00H
	ORG $+7
$SG46328 DB	'indices', 00H
$SG46332 DB	'material', 00H
	ORG $+7
$SG46333 DB	'pbrMetallicRoughness', 00H
	ORG $+3
$SG46334 DB	'baseColorFactor', 00H
$SG46339 DB	'NORMAL', 00H
	ORG $+1
$SG46340 DB	'TEXCOORD_0', 00H
	ORG $+5
$SG46341 DB	'COLOR_0', 00H
$SG38306 DB	'bad req_comp', 00H
	ORG $+3
$SG38312 DB	'outofmem', 00H
	ORG $+7
$SG38322 DB	'outofmem', 00H
	ORG $+7
$SG38364 DB	'outofmem', 00H
	ORG $+7
$SG38373 DB	'outofmem', 00H
	ORG $+7
$SG38395 DB	'outofmem', 00H
	ORG $+7
$SG46646 DB	'.', 00H, '.', 00H, '/', 00H, 'a', 00H, 's', 00H, 's', 00H
	DB	'e', 00H, 't', 00H, 's', 00H, '/', 00H, 'R', 00H, 'a', 00H, 'n'
	DB	00H, 'd', 00H, 'y', 00H, 'G', 00H, 'G', 00H, '.', 00H, 't', 00H
	DB	't', 00H, 'f', 00H, 00H, 00H
	ORG $+4
$SG46647 DB	'.', 00H, '.', 00H, '/', 00H, 'a', 00H, 's', 00H, 's', 00H
	DB	'e', 00H, 't', 00H, 's', 00H, '/', 00H, 's', 00H, 'o', 00H, 'u'
	DB	00H, 'n', 00H, 'd', 00H, '.', 00H, 'w', 00H, 'a', 00H, 'v', 00H
	DB	00H, 00H
$SG46648 DB	'../assets/test.png', 00H
	ORG $+5
$SG46649 DB	'../assets/models/scene.gltf', 00H
	ORG $+4
$SG38457 DB	'bad sizes', 00H
	ORG $+6
$SG46650 DB	'../assets/models/primitives/sphere.gltf', 00H
$SG46651 DB	'../assets/models/primitives/bean.gltf', 00H
	ORG $+2
$SG46652 DB	'.', 00H, '.', 00H, '/', 00H, 'c', 00H, 'o', 00H, 'd', 00H
	DB	'e', 00H, '/', 00H, 's', 00H, 'h', 00H, 'a', 00H, 'd', 00H, 'e'
	DB	00H, 'r', 00H, 's', 00H, '.', 00H, 'h', 00H, 'l', 00H, 's', 00H
	DB	'l', 00H, 00H, 00H
	ORG $+6
$SG38460 DB	'bad codelengths', 00H
$SG46653 DB	'.', 00H, '.', 00H, '/', 00H, 'c', 00H, 'o', 00H, 'd', 00H
	DB	'e', 00H, '/', 00H, 'u', 00H, 'i', 00H, '_', 00H, 's', 00H, 'h'
	DB	00H, 'a', 00H, 'd', 00H, 'e', 00H, 'r', 00H, 's', 00H, '.', 00H
	DB	'h', 00H, 'l', 00H, 's', 00H, 'l', 00H, 00H, 00H
$SG46662 DB	'HELLO, WORLD!', 00H
	ORG $+2
$SG46663 DB	'EDIT TEXT', 00H
	ORG $+6
$SG46666 DB	'HELLO, WORLD!', 00H
	ORG $+2
$SG46667 DB	'EDIT TEXT', 00H
	ORG $+6
$SG38545 DB	'output buffer limit', 00H
	ORG $+4
$SG38547 DB	'outofmem', 00H
	ORG $+7
$SG38549 DB	'outofmem', 00H
	ORG $+7
$SG38551 DB	'outofmem', 00H
	ORG $+7
?stbi__zlength_base@@3QBHB DD 03H			; stbi__zlength_base
	DD	04H
	DD	05H
	DD	06H
	DD	07H
	DD	08H
	DD	09H
	DD	0aH
	DD	0bH
	DD	0dH
	DD	0fH
	DD	011H
	DD	013H
	DD	017H
	DD	01bH
	DD	01fH
	DD	023H
	DD	02bH
	DD	033H
	DD	03bH
	DD	043H
	DD	053H
	DD	063H
	DD	073H
	DD	083H
	DD	0a3H
	DD	0c3H
	DD	0e3H
	DD	0102H
	DD	00H
	DD	00H
	ORG $+4
?stbi__zlength_extra@@3QBHB DD 00H			; stbi__zlength_extra
	DD	00H
	DD	00H
	DD	00H
	DD	00H
	DD	00H
	DD	00H
	DD	00H
	DD	01H
	DD	01H
	DD	01H
	DD	01H
	DD	02H
	DD	02H
	DD	02H
	DD	02H
	DD	03H
	DD	03H
	DD	03H
	DD	03H
	DD	04H
	DD	04H
	DD	04H
	DD	04H
	DD	05H
	DD	05H
	DD	05H
	DD	05H
	DD	00H
	DD	00H
	DD	00H
	ORG $+4
?stbi__zdist_base@@3QBHB DD 01H				; stbi__zdist_base
	DD	02H
	DD	03H
	DD	04H
	DD	05H
	DD	07H
	DD	09H
	DD	0dH
	DD	011H
	DD	019H
	DD	021H
	DD	031H
	DD	041H
	DD	061H
	DD	081H
	DD	0c1H
	DD	0101H
	DD	0181H
	DD	0201H
	DD	0301H
	DD	0401H
	DD	0601H
	DD	0801H
	DD	0c01H
	DD	01001H
	DD	01801H
	DD	02001H
	DD	03001H
	DD	04001H
	DD	06001H
	DD	00H
	DD	00H
?stbi__zdist_extra@@3QBHB DD 00H			; stbi__zdist_extra
	DD	00H
	DD	00H
	DD	00H
	DD	01H
	DD	01H
	DD	02H
	DD	02H
	DD	03H
	DD	03H
	DD	04H
	DD	04H
	DD	05H
	DD	05H
	DD	06H
	DD	06H
	DD	07H
	DD	07H
	DD	08H
	DD	08H
	DD	09H
	DD	09H
	DD	0aH
	DD	0aH
	DD	0bH
	DD	0bH
	DD	0cH
	DD	0cH
	DD	0dH
	DD	0dH
	ORG $+8
$SG38579 DB	'bad huffman code', 00H
	ORG $+7
$SG38585 DB	'bad huffman code', 00H
	ORG $+7
$SG38588 DB	'bad dist', 00H
	ORG $+7
$SG38622 DB	'bad codelengths', 00H
$SG38628 DB	'bad codelengths', 00H
$SG38633 DB	'bad codelengths', 00H
$SG38635 DB	'bad codelengths', 00H
$SG38637 DB	'bad codelengths', 00H
$SG38654 DB	'zlib corrupt', 00H
	ORG $+3
$SG38656 DB	'zlib corrupt', 00H
	ORG $+3
$SG38658 DB	'read past buffer', 00H
	ORG $+7
$SG38668 DB	'bad zlib header', 00H
$SG38670 DB	'bad zlib header', 00H
$SG38672 DB	'no preset dict', 00H
	ORG $+1
$SG38674 DB	'bad compression', 00H
$SG39004 DB	'not enough pixels', 00H
	ORG $+6
?stbi__zdefault_length@@3QBEB DB 08H			; stbi__zdefault_length
	DB	08H
	DB	08H
	DB	08H
	DB	08H
	DB	08H
	DB	08H
	DB	08H
	DB	08H
	DB	08H
	DB	08H
	DB	08H
	DB	08H
	DB	08H
	DB	08H
	DB	08H
	DB	08H
	DB	08H
	DB	08H
	DB	08H
	DB	08H
	DB	08H
	DB	08H
	DB	08H
	DB	08H
	DB	08H
	DB	08H
	DB	08H
	DB	08H
	DB	08H
	DB	08H
	DB	08H
	DB	08H
	DB	08H
	DB	08H
	DB	08H
	DB	08H
	DB	08H
	DB	08H
	DB	08H
	DB	08H
	DB	08H
	DB	08H
	DB	08H
	DB	08H
	DB	08H
	DB	08H
	DB	08H
	DB	08H
	DB	08H
	DB	08H
	DB	08H
	DB	08H
	DB	08H
	DB	08H
	DB	08H
	DB	08H
	DB	08H
	DB	08H
	DB	08H
	DB	08H
	DB	08H
	DB	08H
	DB	08H
	DB	08H
	DB	08H
	DB	08H
	DB	08H
	DB	08H
	DB	08H
	DB	08H
	DB	08H
	DB	08H
	DB	08H
	DB	08H
	DB	08H
	DB	08H
	DB	08H
	DB	08H
	DB	08H
	DB	08H
	DB	08H
	DB	08H
	DB	08H
	DB	08H
	DB	08H
	DB	08H
	DB	08H
	DB	08H
	DB	08H
	DB	08H
	DB	08H
	DB	08H
	DB	08H
	DB	08H
	DB	08H
	DB	08H
	DB	08H
	DB	08H
	DB	08H
	DB	08H
	DB	08H
	DB	08H
	DB	08H
	DB	08H
	DB	08H
	DB	08H
	DB	08H
	DB	08H
	DB	08H
	DB	08H
	DB	08H
	DB	08H
	DB	08H
	DB	08H
	DB	08H
	DB	08H
	DB	08H
	DB	08H
	DB	08H
	DB	08H
	DB	08H
	DB	08H
	DB	08H
	DB	08H
	DB	08H
	DB	08H
	DB	08H
	DB	08H
	DB	08H
	DB	08H
	DB	08H
	DB	08H
	DB	08H
	DB	08H
	DB	08H
	DB	08H
	DB	08H
	DB	08H
	DB	08H
	DB	08H
	DB	08H
	DB	08H
	DB	08H
	DB	09H
	DB	09H
	DB	09H
	DB	09H
	DB	09H
	DB	09H
	DB	09H
	DB	09H
	DB	09H
	DB	09H
	DB	09H
	DB	09H
	DB	09H
	DB	09H
	DB	09H
	DB	09H
	DB	09H
	DB	09H
	DB	09H
	DB	09H
	DB	09H
	DB	09H
	DB	09H
	DB	09H
	DB	09H
	DB	09H
	DB	09H
	DB	09H
	DB	09H
	DB	09H
	DB	09H
	DB	09H
	DB	09H
	DB	09H
	DB	09H
	DB	09H
	DB	09H
	DB	09H
	DB	09H
	DB	09H
	DB	09H
	DB	09H
	DB	09H
	DB	09H
	DB	09H
	DB	09H
	DB	09H
	DB	09H
	DB	09H
	DB	09H
	DB	09H
	DB	09H
	DB	09H
	DB	09H
	DB	09H
	DB	09H
	DB	09H
	DB	09H
	DB	09H
	DB	09H
	DB	09H
	DB	09H
	DB	09H
	DB	09H
	DB	09H
	DB	09H
	DB	09H
	DB	09H
	DB	09H
	DB	09H
	DB	09H
	DB	09H
	DB	09H
	DB	09H
	DB	09H
	DB	09H
	DB	09H
	DB	09H
	DB	09H
	DB	09H
	DB	09H
	DB	09H
	DB	09H
	DB	09H
	DB	09H
	DB	09H
	DB	09H
	DB	09H
	DB	09H
	DB	09H
	DB	09H
	DB	09H
	DB	09H
	DB	09H
	DB	09H
	DB	09H
	DB	09H
	DB	09H
	DB	09H
	DB	09H
	DB	09H
	DB	09H
	DB	09H
	DB	09H
	DB	09H
	DB	09H
	DB	09H
	DB	09H
	DB	09H
	DB	09H
	DB	09H
	DB	09H
	DB	07H
	DB	07H
	DB	07H
	DB	07H
	DB	07H
	DB	07H
	DB	07H
	DB	07H
	DB	07H
	DB	07H
	DB	07H
	DB	07H
	DB	07H
	DB	07H
	DB	07H
	DB	07H
	DB	07H
	DB	07H
	DB	07H
	DB	07H
	DB	07H
	DB	07H
	DB	07H
	DB	07H
	DB	08H
	DB	08H
	DB	08H
	DB	08H
	DB	08H
	DB	08H
	DB	08H
	DB	08H
?stbi__zdefault_distance@@3QBEB DB 05H			; stbi__zdefault_distance
	DB	05H
	DB	05H
	DB	05H
	DB	05H
	DB	05H
	DB	05H
	DB	05H
	DB	05H
	DB	05H
	DB	05H
	DB	05H
	DB	05H
	DB	05H
	DB	05H
	DB	05H
	DB	05H
	DB	05H
	DB	05H
	DB	05H
	DB	05H
	DB	05H
	DB	05H
	DB	05H
	DB	05H
	DB	05H
	DB	05H
	DB	05H
	DB	05H
	DB	05H
	DB	05H
	DB	05H
$SG38811 DB	'bad png sig', 00H
	ORG $+4
?stbi__depth_scale_table@@3QBEB DB 00H			; stbi__depth_scale_table
	DB	0ffH
	DB	055H
	DB	00H
	DB	011H
	DB	00H
	DB	00H
	DB	00H
	DB	01H
	ORG $+7
$SG39000 DB	'outofmem', 00H
	ORG $+7
$SG39002 DB	'too large', 00H
	ORG $+6
$SG39006 DB	'invalid filter', 00H
	ORG $+1
$SG39009 DB	'invalid width', 00H
	ORG $+2
$SG39102 DB	'outofmem', 00H
	ORG $+7
$SG39168 DB	'outofmem', 00H
	ORG $+7
$SG39310 DB	'multiple IHDR', 00H
	ORG $+2
$SG39312 DB	'bad IHDR len', 00H
	ORG $+3
$SG39314 DB	'too large', 00H
	ORG $+6
$SG39316 DB	'too large', 00H
	ORG $+6
$SG39318 DB	'1/2/4/8/16-bit only', 00H
	ORG $+4
$SG39320 DB	'bad ctype', 00H
	ORG $+6
$SG39322 DB	'bad ctype', 00H
	ORG $+6
$SG39326 DB	'bad ctype', 00H
	ORG $+6
$SG39328 DB	'bad comp method', 00H
$SG39330 DB	'bad filter method', 00H
	ORG $+6
$SG39332 DB	'bad interlace method', 00H
	ORG $+3
$SG39335 DB	'0-pixel image', 00H
	ORG $+2
$SG39339 DB	'too large', 00H
	ORG $+6
$SG39342 DB	'too large', 00H
	ORG $+6
$SG39345 DB	'first not IHDR', 00H
	ORG $+1
$SG39347 DB	'invalid PLTE', 00H
	ORG $+3
$SG39349 DB	'invalid PLTE', 00H
	ORG $+3
$SG39352 DB	'first not IHDR', 00H
	ORG $+1
$SG39354 DB	'tRNS after IDAT', 00H
$SG39359 DB	'tRNS before PLTE', 00H
	ORG $+7
$SG39361 DB	'bad tRNS len', 00H
	ORG $+3
$SG39363 DB	'tRNS with alpha', 00H
$SG39365 DB	'bad tRNS len', 00H
	ORG $+3
$SG39370 DB	'first not IHDR', 00H
	ORG $+1
$SG39372 DB	'no PLTE', 00H
$SG39378 DB	'outofmem', 00H
	ORG $+7
$SG39380 DB	'outofdata', 00H
	ORG $+6
$SG39383 DB	'first not IHDR', 00H
	ORG $+1
$SG39386 DB	'no IDAT', 00H
$SG39406 DB	'first not IHDR', 00H
	ORG $+1
$SG39425 DB	'bad req_comp', 00H
	ORG $+3
$SG39431 DB	'bad bits_per_channel', 00H
	ORG $+3
$SG39579 DB	'not BMP', 00H
$SG39581 DB	'bad BMP', 00H
$SG39583 DB	'unknown BMP', 00H
	ORG $+4
$SG39587 DB	'bad BMP', 00H
$SG39591 DB	'BMP RLE', 00H
$SG39593 DB	'BMP JPEG/PNG', 00H
	ORG $+3
$SG39595 DB	'bad BMP', 00H
$SG39607 DB	'bad BMP', 00H
$SG39608 DB	'bad BMP', 00H
$SG39610 DB	'bad BMP', 00H
$SG39732 DB	'too large', 00H
	ORG $+6
$SG39734 DB	'too large', 00H
	ORG $+6
$SG39741 DB	'bad offset', 00H
	ORG $+5
$SG39747 DB	'too large', 00H
	ORG $+6
$SG39749 DB	'outofmem', 00H
	ORG $+7
$SG39754 DB	'invalid', 00H
$SG39762 DB	'bad bpp', 00H
$SG39783 DB	'bad masks', 00H
	ORG $+6
$SG39786 DB	'bad masks', 00H
	ORG $+6
$SG39972 DB	'too large', 00H
	ORG $+6
$SG39974 DB	'too large', 00H
	ORG $+6
$SG39979 DB	'bad format', 00H
	ORG $+5
$SG39982 DB	'too large', 00H
	ORG $+6
$SG39984 DB	'outofmem', 00H
	ORG $+7
$SG39989 DB	'bad palette', 00H
	ORG $+4
$SG39991 DB	'outofmem', 00H
	ORG $+7
$SG39996 DB	'bad palette', 00H
	ORG $+4
$SG40141 DB	'not PSD', 00H
$SG40143 DB	'wrong version', 00H
	ORG $+2
$SG40146 DB	'wrong channel count', 00H
	ORG $+4
$SG40148 DB	'too large', 00H
	ORG $+6
$SG40150 DB	'too large', 00H
	ORG $+6
$SG40152 DB	'unsupported bit depth', 00H
	ORG $+2
$SG40154 DB	'wrong color format', 00H
	ORG $+5
$SG40156 DB	'bad compression', 00H
$SG40158 DB	'too large', 00H
	ORG $+6
$SG40162 DB	'outofmem', 00H
	ORG $+7
$SG40168 DB	'corrupt', 00H
$SG40205 DB	'S', 080H, 0f6H, '4', 00H
	ORG $+3
$SG40207 DB	'PICT', 00H
	ORG $+3
$SG40237 DB	'bad file', 00H
	ORG $+7
$SG40319 DB	'bad format', 00H
	ORG $+5
$SG40321 DB	'bad file', 00H
	ORG $+7
$SG40323 DB	'bad format', 00H
	ORG $+5
$SG40325 DB	'bad format', 00H
	ORG $+5
$SG40330 DB	'bad file', 00H
	ORG $+7
$SG40335 DB	'bad file', 00H
	ORG $+7
$SG40341 DB	'bad file', 00H
	ORG $+7
$SG40344 DB	'bad file', 00H
	ORG $+7
$SG40376 DB	'too large', 00H
	ORG $+6
$SG40378 DB	'too large', 00H
	ORG $+6
$SG40380 DB	'bad file', 00H
	ORG $+7
$SG40382 DB	'too large', 00H
	ORG $+6
$SG40384 DB	'outofmem', 00H
	ORG $+7
$SG40474 DB	'not GIF', 00H
$SG40476 DB	'not GIF', 00H
$SG40478 DB	'not GIF', 00H
$SG40481 DB	'too large', 00H
	ORG $+6
$SG40483 DB	'too large', 00H
	ORG $+6
$SG40497 DB	'outofmem', 00H
	ORG $+7
$SG40564 DB	'no clear code', 00H
	ORG $+2
$SG40568 DB	'too many codes', 00H
	ORG $+1
$SG40570 DB	'illegal code in raster', 00H
	ORG $+1
$SG40572 DB	'illegal code in raster', 00H
	ORG $+1
$SG40629 DB	'too large', 00H
	ORG $+6
$SG40632 DB	'outofmem', 00H
	ORG $+7
$SG40643 DB	'bad Image Descriptor', 00H
	ORG $+3
$SG40651 DB	'missing color table', 00H
	ORG $+4
$SG40665 DB	'unknown code', 00H
	ORG $+3
$SG40675 DB	'outofmem', 00H
	ORG $+7
$SG40729 DB	'not GIF', 00H
$SG40766 DB	'#?RADIANCE', 0aH, 00H
	ORG $+4
$SG40768 DB	'#?RGBE', 0aH, 00H
$SG40895 DB	'#?RADIANCE', 00H
	ORG $+1
$SG40896 DB	'#?RGBE', 00H
	ORG $+5
$SG40897 DB	'not HDR', 00H
$SG40900 DB	'FORMAT=32-bit_rle_rgbe', 00H
	ORG $+1
$SG40902 DB	'unsupported format', 00H
	ORG $+5
$SG40905 DB	'unsupported data layout', 00H
$SG40908 DB	'unsupported data layout', 00H
$SG40910 DB	'too large', 00H
	ORG $+6
$SG40912 DB	'too large', 00H
	ORG $+6
$SG40916 DB	'too large', 00H
	ORG $+6
$SG40918 DB	'outofmem', 00H
	ORG $+7
$SG40925 DB	'invalid decoded scanline length', 00H
$SG40928 DB	'outofmem', 00H
	ORG $+7
$SG40932 DB	'corrupt', 00H
$SG40934 DB	'corrupt', 00H
$SG40959 DB	'FORMAT=32-bit_rle_rgbe', 00H
CONST	ENDS
PUBLIC	GameUpdateAndRenderStub
PUBLIC	stbtt_BakeFontBitmap
PUBLIC	stbtt_GetBakedQuad
PUBLIC	stbtt_GetScaledFontVMetrics
PUBLIC	stbtt_PackBegin
PUBLIC	stbtt_PackEnd
PUBLIC	stbtt_PackFontRange
PUBLIC	stbtt_PackFontRanges
PUBLIC	stbtt_PackSetOversampling
PUBLIC	stbtt_PackSetSkipMissingCodepoints
PUBLIC	stbtt_GetPackedQuad
PUBLIC	stbtt_PackFontRangesGatherRects
PUBLIC	stbtt_PackFontRangesPackRects
PUBLIC	stbtt_PackFontRangesRenderIntoRects
PUBLIC	stbtt_GetNumberOfFonts
PUBLIC	stbtt_GetFontOffsetForIndex
PUBLIC	stbtt_InitFont
PUBLIC	stbtt_FindGlyphIndex
PUBLIC	stbtt_ScaleForPixelHeight
PUBLIC	stbtt_ScaleForMappingEmToPixels
PUBLIC	stbtt_GetFontVMetrics
PUBLIC	stbtt_GetFontVMetricsOS2
PUBLIC	stbtt_GetFontBoundingBox
PUBLIC	stbtt_GetCodepointHMetrics
PUBLIC	stbtt_GetCodepointKernAdvance
PUBLIC	stbtt_GetCodepointBox
PUBLIC	stbtt_GetGlyphHMetrics
PUBLIC	stbtt_GetGlyphKernAdvance
PUBLIC	stbtt_GetGlyphBox
PUBLIC	stbtt_GetKerningTableLength
PUBLIC	stbtt_GetKerningTable
PUBLIC	stbtt_IsGlyphEmpty
PUBLIC	stbtt_GetCodepointShape
PUBLIC	stbtt_GetGlyphShape
PUBLIC	stbtt_FreeShape
PUBLIC	stbtt_FindSVGDoc
PUBLIC	stbtt_GetCodepointSVG
PUBLIC	stbtt_GetGlyphSVG
PUBLIC	stbtt_FreeBitmap
PUBLIC	stbtt_GetCodepointBitmap
PUBLIC	stbtt_GetCodepointBitmapSubpixel
PUBLIC	stbtt_MakeCodepointBitmap
PUBLIC	stbtt_MakeCodepointBitmapSubpixel
PUBLIC	stbtt_MakeCodepointBitmapSubpixelPrefilter
PUBLIC	stbtt_GetCodepointBitmapBox
PUBLIC	stbtt_GetCodepointBitmapBoxSubpixel
PUBLIC	stbtt_GetGlyphBitmap
PUBLIC	stbtt_GetGlyphBitmapSubpixel
PUBLIC	stbtt_MakeGlyphBitmap
PUBLIC	stbtt_MakeGlyphBitmapSubpixel
PUBLIC	stbtt_MakeGlyphBitmapSubpixelPrefilter
PUBLIC	stbtt_GetGlyphBitmapBox
PUBLIC	stbtt_GetGlyphBitmapBoxSubpixel
PUBLIC	stbtt_Rasterize
PUBLIC	stbtt_FreeSDF
PUBLIC	stbtt_GetGlyphSDF
PUBLIC	stbtt_GetCodepointSDF
PUBLIC	stbtt_FindMatchingFont
PUBLIC	stbtt_CompareUTF8toUTF16_bigendian
PUBLIC	stbtt_GetFontNameString
PUBLIC	stbi_load_from_memory
PUBLIC	stbi_load_from_callbacks
PUBLIC	stbi_load
PUBLIC	stbi_load_from_file
PUBLIC	stbi_load_gif_from_memory
PUBLIC	stbi_load_16_from_memory
PUBLIC	stbi_load_16_from_callbacks
PUBLIC	stbi_load_16
PUBLIC	stbi_load_from_file_16
PUBLIC	stbi_loadf_from_memory
PUBLIC	stbi_loadf_from_callbacks
PUBLIC	stbi_loadf
PUBLIC	stbi_loadf_from_file
PUBLIC	stbi_hdr_to_ldr_gamma
PUBLIC	stbi_hdr_to_ldr_scale
PUBLIC	stbi_ldr_to_hdr_gamma
PUBLIC	stbi_ldr_to_hdr_scale
PUBLIC	stbi_is_hdr_from_callbacks
PUBLIC	stbi_is_hdr_from_memory
PUBLIC	stbi_is_hdr
PUBLIC	stbi_is_hdr_from_file
PUBLIC	stbi_failure_reason
PUBLIC	stbi_image_free
PUBLIC	stbi_info_from_memory
PUBLIC	stbi_info_from_callbacks
PUBLIC	stbi_is_16_bit_from_memory
PUBLIC	stbi_is_16_bit_from_callbacks
PUBLIC	stbi_info
PUBLIC	stbi_info_from_file
PUBLIC	stbi_is_16_bit
PUBLIC	stbi_is_16_bit_from_file
PUBLIC	stbi_set_unpremultiply_on_load
PUBLIC	stbi_convert_iphone_png_to_rgb
PUBLIC	stbi_set_flip_vertically_on_load
PUBLIC	stbi_convert_iphone_png_to_rgb_thread
PUBLIC	stbi_set_flip_vertically_on_load_thread
PUBLIC	stbi_zlib_decode_malloc_guesssize
PUBLIC	stbi_zlib_decode_malloc_guesssize_headerflag
PUBLIC	stbi_zlib_decode_malloc
PUBLIC	stbi_zlib_decode_buffer
PUBLIC	stbi_zlib_decode_noheader_malloc
PUBLIC	stbi_zlib_decode_noheader_buffer
PUBLIC	?stbi__unpremultiply_on_load_thread@@YAXH@Z	; stbi__unpremultiply_on_load_thread
PUBLIC	?RunPlayer@@YAXPEAUentity@@M@Z			; RunPlayer
PUBLIC	?OnCollidePlayer@@YAXPEAUentity@@0@Z		; OnCollidePlayer
PUBLIC	json_parse
PUBLIC	json_parse_ex
PUBLIC	json_value_as_string
PUBLIC	json_value_as_number
PUBLIC	json_value_as_object
PUBLIC	json_value_as_array
PUBLIC	?json_hexadecimal_digit@@YAHD@Z			; json_hexadecimal_digit
PUBLIC	?json_hexadecimal_value@@YAHPEBDKPEAK@Z		; json_hexadecimal_value
PUBLIC	?json_skip_whitespace@@YAHPEAUjson_parse_state_s@@@Z ; json_skip_whitespace
PUBLIC	?json_skip_c_style_comments@@YAHPEAUjson_parse_state_s@@@Z ; json_skip_c_style_comments
PUBLIC	?json_skip_all_skippables@@YAHPEAUjson_parse_state_s@@@Z ; json_skip_all_skippables
PUBLIC	?json_get_value_size@@YAHPEAUjson_parse_state_s@@H@Z ; json_get_value_size
PUBLIC	?json_get_string_size@@YAHPEAUjson_parse_state_s@@_K@Z ; json_get_string_size
PUBLIC	?is_valid_unquoted_key_char@@YAHD@Z		; is_valid_unquoted_key_char
PUBLIC	?json_get_key_size@@YAHPEAUjson_parse_state_s@@@Z ; json_get_key_size
PUBLIC	?json_get_object_size@@YAHPEAUjson_parse_state_s@@H@Z ; json_get_object_size
PUBLIC	?json_get_array_size@@YAHPEAUjson_parse_state_s@@@Z ; json_get_array_size
PUBLIC	?json_get_number_size@@YAHPEAUjson_parse_state_s@@@Z ; json_get_number_size
PUBLIC	?json_parse_value@@YAXPEAUjson_parse_state_s@@HPEAUjson_value_s@@@Z ; json_parse_value
PUBLIC	?json_parse_string@@YAXPEAUjson_parse_state_s@@PEAUjson_string_s@@@Z ; json_parse_string
PUBLIC	?json_parse_key@@YAXPEAUjson_parse_state_s@@PEAUjson_string_s@@@Z ; json_parse_key
PUBLIC	?json_parse_object@@YAXPEAUjson_parse_state_s@@HPEAUjson_object_s@@@Z ; json_parse_object
PUBLIC	?json_parse_array@@YAXPEAUjson_parse_state_s@@PEAUjson_array_s@@@Z ; json_parse_array
PUBLIC	?json_parse_number@@YAXPEAUjson_parse_state_s@@PEAUjson_number_s@@@Z ; json_parse_number
PUBLIC	?GameUpdateAndRender@@YAHW4window_flags@@Uwindow_dimension@@PEAUgame_memory@@PEAUgame_input@@M@Z ; GameUpdateAndRender
PUBLIC	??_C@_08KEBCLIFP@Infinity@			; `string'
PUBLIC	??_C@_03ICJPMMHB@NaN@				; `string'
PUBLIC	__real@00000000
PUBLIC	__real@0000000000000000
PUBLIC	__real@34000000
PUBLIC	__real@38d1b717
PUBLIC	__real@3a83126f
PUBLIC	__real@3c23d70a
PUBLIC	__real@3c8efa35
PUBLIC	__real@3da3d70a
PUBLIC	__real@3dcccccd
PUBLIC	__real@3e800000
PUBLIC	__real@3e99999a
PUBLIC	__real@3eb33333
PUBLIC	__real@3f000000
PUBLIC	__real@3f4ccccd
PUBLIC	__real@3f666666
PUBLIC	__real@3f7d70a4
PUBLIC	__real@3f800000
PUBLIC	__real@3fd5555560000000
PUBLIC	__real@3fddb3d7
PUBLIC	__real@3ff0000000000000
PUBLIC	__real@3ff028f5c0000000
PUBLIC	__real@3ff921fafc8b007a
PUBLIC	__real@40000000
PUBLIC	__real@4000000000000000
PUBLIC	__real@40400000
PUBLIC	__real@40800000
PUBLIC	__real@40a00000
PUBLIC	__real@41100000
PUBLIC	__real@41200000
PUBLIC	__real@41d80000
PUBLIC	__real@41f00000
PUBLIC	__real@42000000
PUBLIC	__real@42700000
PUBLIC	__real@42b40000
PUBLIC	__real@42c80000
PUBLIC	__real@437f0000
PUBLIC	__real@46800000
PUBLIC	__real@477fff00
PUBLIC	__real@47800000
PUBLIC	__real@497423f0
PUBLIC	__real@be4ccccd
PUBLIC	__real@be99999a
PUBLIC	__real@bf000000
PUBLIC	__real@bf800000
PUBLIC	__real@c0000000
PUBLIC	__real@c1d80000
PUBLIC	__xmm@00000200000002000000020000000200
PUBLIC	__xmm@00080008000800080008000800080008
PUBLIC	__xmm@00ff00ff00ff00ff00ff00ff00ff00ff
PUBLIC	__xmm@01010000010100000101000001010000
PUBLIC	__xmm@08a914e808a914e808a914e808a914e8
PUBLIC	__xmm@11c8e09e11c8e09e11c8e09e11c8e09e
PUBLIC	__xmm@11c8f9c311c8f9c311c8f9c311c8f9c3
PUBLIC	__xmm@12d0046b12d0046b12d0046b12d0046b
PUBLIC	__xmm@166f166f166f166f166f166f166f166f
PUBLIC	__xmm@1c5a1c5a1c5a1c5a1c5a1c5a1c5a1c5a
PUBLIC	__xmm@7fffffffffffffff7fffffffffffffff
PUBLIC	__xmm@80000000000000008000000000000000
PUBLIC	__xmm@80000000800000008000000080000000
PUBLIC	__xmm@80808080808080808080808080808080
PUBLIC	__xmm@e09ee565e09ee565e09ee565e09ee565
PUBLIC	__xmm@e9cf12d0e9cf12d0e9cf12d0e9cf12d0
PUBLIC	__xmm@eb1a08a9eb1a08a9eb1a08a9eb1a08a9
PUBLIC	__xmm@f493f493f493f493f493f493f493f493
PUBLIC	__xmm@f9c31a9df9c31a9df9c31a9df9c31a9d
PUBLIC	__xmm@fa7efa7efa7efa7efa7efa7efa7efa7e
EXTRN	free:PROC
EXTRN	malloc:PROC
EXTRN	realloc:PROC
EXTRN	ldexp:PROC
EXTRN	fopen_s:PROC
EXTRN	fclose:PROC
EXTRN	feof:PROC
EXTRN	ferror:PROC
EXTRN	fgetc:PROC
EXTRN	fread:PROC
EXTRN	fseek:PROC
EXTRN	ftell:PROC
EXTRN	ungetc:PROC
EXTRN	strtod:PROC
EXTRN	strtol:PROC
EXTRN	strncmp:PROC
EXTRN	_wassert:PROC
EXTRN	__GSHandlerCheck:PROC
EXTRN	__chkstk:PROC
EXTRN	__security_check_cookie:PROC
EXTRN	acos:PROC
EXTRN	ceil:PROC
EXTRN	cos:PROC
EXTRN	cosf:PROC
EXTRN	floor:PROC
EXTRN	fmod:PROC
EXTRN	pow:PROC
EXTRN	sinf:PROC
EXTRN	sqrt:PROC
EXTRN	sqrtf:PROC
EXTRN	tanf:PROC
EXTRN	__ImageBase:BYTE
EXTRN	__security_cookie:QWORD
EXTRN	_fltused:DWORD
EXTRN	_tls_index:DWORD
_BSS	SEGMENT
?State@@3PEAUgame_state@@EA DQ 01H DUP (?)		; State
?TranState@@3PEAUtransient_state@@EA DQ 01H DUP (?)	; TranState
?Input@@3PEAUgame_input@@EA DQ 01H DUP (?)		; Input
?Platform@@3PEAUplatform_api@@EA DQ 01H DUP (?)		; Platform
?ShouldClose@@3HA DD 01H DUP (?)			; ShouldClose
_BSS	ENDS
_TLS	SEGMENT
?stbi__g_failure_reason@@3PEBDEB DQ 01H DUP (?)		; stbi__g_failure_reason
_TLS	ENDS
_BSS	SEGMENT
?stbi__vertically_flip_on_load_global@@3HA DD 01H DUP (?) ; stbi__vertically_flip_on_load_global
_BSS	ENDS
_TLS	SEGMENT
?stbi__vertically_flip_on_load_local@@3HA DD 01H DUP (?) ; stbi__vertically_flip_on_load_local
?stbi__vertically_flip_on_load_set@@3HA DD 01H DUP (?)	; stbi__vertically_flip_on_load_set
_TLS	ENDS
_BSS	SEGMENT
?stbi__unpremultiply_on_load_global@@3HA DD 01H DUP (?)	; stbi__unpremultiply_on_load_global
?stbi__de_iphone_flag_global@@3HA DD 01H DUP (?)	; stbi__de_iphone_flag_global
_BSS	ENDS
_TLS	SEGMENT
?stbi__unpremultiply_on_load_local@@3HA DD 01H DUP (?)	; stbi__unpremultiply_on_load_local
?stbi__unpremultiply_on_load_set@@3HA DD 01H DUP (?)	; stbi__unpremultiply_on_load_set
?stbi__de_iphone_flag_local@@3HA DD 01H DUP (?)		; stbi__de_iphone_flag_local
?stbi__de_iphone_flag_set@@3HA DD 01H DUP (?)		; stbi__de_iphone_flag_set
_TLS	ENDS
_BSS	SEGMENT
?YVelocity@@3MA DD 01H DUP (?)				; YVelocity
?XRotation@@3MA DD 01H DUP (?)				; XRotation
?YRotation@@3MA DD 01H DUP (?)				; YRotation
_BSS	ENDS
pdata	SEGMENT
$pdata$PushSize DD imagerel PushSize
	DD	imagerel PushSize+100
	DD	imagerel $unwind$PushSize
$pdata$?Sin@@YAMM@Z DD imagerel ?Sin@@YAMM@Z
	DD	imagerel ?Sin@@YAMM@Z+26
	DD	imagerel $unwind$?Sin@@YAMM@Z
$pdata$?Cos@@YAMM@Z DD imagerel ?Cos@@YAMM@Z
	DD	imagerel ?Cos@@YAMM@Z+26
	DD	imagerel $unwind$?Cos@@YAMM@Z
$pdata$?Tan@@YAMM@Z DD imagerel ?Tan@@YAMM@Z
	DD	imagerel ?Tan@@YAMM@Z+26
	DD	imagerel $unwind$?Tan@@YAMM@Z
$pdata$?Sqrt@@YAMM@Z DD imagerel ?Sqrt@@YAMM@Z
	DD	imagerel ?Sqrt@@YAMM@Z+26
	DD	imagerel $unwind$?Sqrt@@YAMM@Z
$pdata$?V2@@YA?ATv2@@MM@Z DD imagerel ?V2@@YA?ATv2@@MM@Z
	DD	imagerel ?V2@@YA?ATv2@@MM@Z+76
	DD	imagerel $unwind$?V2@@YA?ATv2@@MM@Z
$pdata$?V2@@YA?ATv2@@HH@Z DD imagerel ?V2@@YA?ATv2@@HH@Z
	DD	imagerel ?V2@@YA?ATv2@@HH@Z+72
	DD	imagerel $unwind$?V2@@YA?ATv2@@HH@Z
$pdata$??H@YA?ATv2@@T0@0@Z DD imagerel ??H@YA?ATv2@@T0@0@Z
	DD	imagerel ??H@YA?ATv2@@T0@0@Z+86
	DD	imagerel $unwind$??H@YA?ATv2@@T0@0@Z
$pdata$??D@YA?ATv2@@T0@0@Z DD imagerel ??D@YA?ATv2@@T0@0@Z
	DD	imagerel ??D@YA?ATv2@@T0@0@Z+86
	DD	imagerel $unwind$??D@YA?ATv2@@T0@0@Z
$pdata$??D@YA?ATv2@@T0@M@Z DD imagerel ??D@YA?ATv2@@T0@M@Z
	DD	imagerel ??D@YA?ATv2@@T0@M@Z+87
	DD	imagerel $unwind$??D@YA?ATv2@@T0@M@Z
$pdata$??X@YAAEATv2@@AEAT0@M@Z DD imagerel ??X@YAAEATv2@@AEAT0@M@Z
	DD	imagerel ??X@YAAEATv2@@AEAT0@M@Z+90
	DD	imagerel $unwind$??X@YAAEATv2@@AEAT0@M@Z
$pdata$??K@YA?ATv2@@T0@M@Z DD imagerel ??K@YA?ATv2@@T0@M@Z
	DD	imagerel ??K@YA?ATv2@@T0@M@Z+87
	DD	imagerel $unwind$??K@YA?ATv2@@T0@M@Z
$pdata$?V2MultiplyDot@@YAMTv2@@0@Z DD imagerel ?V2MultiplyDot@@YAMTv2@@0@Z
	DD	imagerel ?V2MultiplyDot@@YAMTv2@@0@Z+57
	DD	imagerel $unwind$?V2MultiplyDot@@YAMTv2@@0@Z
$pdata$?V2Length@@YAMTv2@@@Z DD imagerel ?V2Length@@YAMTv2@@@Z
	DD	imagerel ?V2Length@@YAMTv2@@@Z+75
	DD	imagerel $unwind$?V2Length@@YAMTv2@@@Z
$pdata$?V2Normalize@@YA?ATv2@@T1@@Z DD imagerel ?V2Normalize@@YA?ATv2@@T1@@Z
	DD	imagerel ?V2Normalize@@YA?ATv2@@T1@@Z+140
	DD	imagerel $unwind$?V2Normalize@@YA?ATv2@@T1@@Z
$pdata$?V3Cross@@YA?ATv3@@T1@0@Z DD imagerel ?V3Cross@@YA?ATv3@@T1@0@Z
	DD	imagerel ?V3Cross@@YA?ATv3@@T1@0@Z+225
	DD	imagerel $unwind$?V3Cross@@YA?ATv3@@T1@0@Z
$pdata$?V3@@YA?ATv3@@MMM@Z DD imagerel ?V3@@YA?ATv3@@MMM@Z
	DD	imagerel ?V3@@YA?ATv3@@MMM@Z+123
	DD	imagerel $unwind$?V3@@YA?ATv3@@MMM@Z
$pdata$?V3@@YA?ATv3@@Tv2@@M@Z DD imagerel ?V3@@YA?ATv3@@Tv2@@M@Z
	DD	imagerel ?V3@@YA?ATv3@@Tv2@@M@Z+116
	DD	imagerel $unwind$?V3@@YA?ATv3@@Tv2@@M@Z
$pdata$?V3@@YA?ATv3@@Tv4@@@Z DD imagerel ?V3@@YA?ATv3@@Tv4@@@Z
	DD	imagerel ?V3@@YA?ATv3@@Tv4@@@Z+121
	DD	imagerel $unwind$?V3@@YA?ATv3@@Tv4@@@Z
$pdata$??H@YA?ATv3@@T0@0@Z DD imagerel ??H@YA?ATv3@@T0@0@Z
	DD	imagerel ??H@YA?ATv3@@T0@0@Z+155
	DD	imagerel $unwind$??H@YA?ATv3@@T0@0@Z
$pdata$??Y@YAAEATv3@@AEAT0@T0@@Z DD imagerel ??Y@YAAEATv3@@AEAT0@T0@@Z
	DD	imagerel ??Y@YAAEATv3@@AEAT0@T0@@Z+166
	DD	imagerel $unwind$??Y@YAAEATv3@@AEAT0@T0@@Z
$pdata$??G@YA?ATv3@@T0@0@Z DD imagerel ??G@YA?ATv3@@T0@0@Z
	DD	imagerel ??G@YA?ATv3@@T0@0@Z+155
	DD	imagerel $unwind$??G@YA?ATv3@@T0@0@Z
$pdata$??D@YA?ATv3@@T0@0@Z DD imagerel ??D@YA?ATv3@@T0@0@Z
	DD	imagerel ??D@YA?ATv3@@T0@0@Z+155
	DD	imagerel $unwind$??D@YA?ATv3@@T0@0@Z
$pdata$??X@YAAEATv3@@AEAT0@T0@@Z DD imagerel ??X@YAAEATv3@@AEAT0@T0@@Z
	DD	imagerel ??X@YAAEATv3@@AEAT0@T0@@Z+166
	DD	imagerel $unwind$??X@YAAEATv3@@AEAT0@T0@@Z
$pdata$??D@YA?ATv3@@T0@M@Z DD imagerel ??D@YA?ATv3@@T0@M@Z
	DD	imagerel ??D@YA?ATv3@@T0@M@Z+145
	DD	imagerel $unwind$??D@YA?ATv3@@T0@M@Z
$pdata$?V3MultiplyDot@@YAMTv3@@0@Z DD imagerel ?V3MultiplyDot@@YAMTv3@@0@Z
	DD	imagerel ?V3MultiplyDot@@YAMTv3@@0@Z+95
	DD	imagerel $unwind$?V3MultiplyDot@@YAMTv3@@0@Z
$pdata$?V3Length@@YAMTv3@@@Z DD imagerel ?V3Length@@YAMTv3@@@Z
	DD	imagerel ?V3Length@@YAMTv3@@@Z+78
	DD	imagerel $unwind$?V3Length@@YAMTv3@@@Z
$pdata$?V3Normalize@@YA?ATv3@@T1@@Z DD imagerel ?V3Normalize@@YA?ATv3@@T1@@Z
	DD	imagerel ?V3Normalize@@YA?ATv3@@T1@@Z+233
	DD	imagerel $unwind$?V3Normalize@@YA?ATv3@@T1@@Z
$pdata$?V3EulerToRotation@@YA?ATv3@@T1@@Z DD imagerel ?V3EulerToRotation@@YA?ATv3@@T1@@Z
	DD	imagerel ?V3EulerToRotation@@YA?ATv3@@T1@@Z+356
	DD	imagerel $unwind$?V3EulerToRotation@@YA?ATv3@@T1@@Z
$pdata$?V4@@YA?ATv4@@MMMM@Z DD imagerel ?V4@@YA?ATv4@@MMMM@Z
	DD	imagerel ?V4@@YA?ATv4@@MMMM@Z+135
	DD	imagerel $unwind$?V4@@YA?ATv4@@MMMM@Z
$pdata$?V4@@YA?ATv4@@Tv3@@M@Z DD imagerel ?V4@@YA?ATv4@@Tv3@@M@Z
	DD	imagerel ?V4@@YA?ATv4@@Tv3@@M@Z+139
	DD	imagerel $unwind$?V4@@YA?ATv4@@Tv3@@M@Z
$pdata$??H@YA?ATv4@@T0@0@Z DD imagerel ??H@YA?ATv4@@T0@0@Z
	DD	imagerel ??H@YA?ATv4@@T0@0@Z+181
	DD	imagerel $unwind$??H@YA?ATv4@@T0@0@Z
$pdata$??D@YA?ATv4@@T0@0@Z DD imagerel ??D@YA?ATv4@@T0@0@Z
	DD	imagerel ??D@YA?ATv4@@T0@0@Z+181
	DD	imagerel $unwind$??D@YA?ATv4@@T0@0@Z
$pdata$??D@YA?ATv4@@T0@M@Z DD imagerel ??D@YA?ATv4@@T0@M@Z
	DD	imagerel ??D@YA?ATv4@@T0@M@Z+167
	DD	imagerel $unwind$??D@YA?ATv4@@T0@M@Z
$pdata$??X@YAAEATv4@@AEAT0@T0@@Z DD imagerel ??X@YAAEATv4@@AEAT0@T0@@Z
	DD	imagerel ??X@YAAEATv4@@AEAT0@T0@@Z+166
	DD	imagerel $unwind$??X@YAAEATv4@@AEAT0@T0@@Z
$pdata$?Mat3FromMat4@@YA?ATmat3@@PEATmat4@@@Z DD imagerel ?Mat3FromMat4@@YA?ATmat3@@PEATmat4@@@Z
	DD	imagerel ?Mat3FromMat4@@YA?ATmat3@@PEATmat4@@@Z+305
	DD	imagerel $unwind$?Mat3FromMat4@@YA?ATmat3@@PEATmat4@@@Z
$pdata$?Mat4Identity@@YA?ATmat4@@XZ DD imagerel ?Mat4Identity@@YA?ATmat4@@XZ
	DD	imagerel ?Mat4Identity@@YA?ATmat4@@XZ+233
	DD	imagerel $unwind$?Mat4Identity@@YA?ATmat4@@XZ
$pdata$?Mat4Transpose@@YAXPEATmat4@@0@Z DD imagerel ?Mat4Transpose@@YAXPEATmat4@@0@Z
	DD	imagerel ?Mat4Transpose@@YAXPEATmat4@@0@Z+481
	DD	imagerel $unwind$?Mat4Transpose@@YAXPEATmat4@@0@Z
$pdata$?Mat4Inverse@@YAXPEATmat4@@0@Z DD imagerel ?Mat4Inverse@@YAXPEATmat4@@0@Z
	DD	imagerel ?Mat4Inverse@@YAXPEATmat4@@0@Z+5335
	DD	imagerel $unwind$?Mat4Inverse@@YAXPEATmat4@@0@Z
$pdata$??D@YA?ATmat4@@T0@0@Z DD imagerel ??D@YA?ATmat4@@T0@0@Z
	DD	imagerel ??D@YA?ATmat4@@T0@0@Z+5039
	DD	imagerel $unwind$??D@YA?ATmat4@@T0@0@Z
$pdata$??D@YA?ATv4@@Tmat4@@T0@@Z DD imagerel ??D@YA?ATv4@@Tmat4@@T0@@Z
	DD	imagerel ??D@YA?ATv4@@Tmat4@@T0@@Z+851
	DD	imagerel $unwind$??D@YA?ATv4@@Tmat4@@T0@@Z
$pdata$?TranslateMat4@@YAXPEATmat4@@Tv3@@@Z DD imagerel ?TranslateMat4@@YAXPEATmat4@@Tv3@@@Z
	DD	imagerel ?TranslateMat4@@YAXPEATmat4@@Tv3@@@Z+855
	DD	imagerel $unwind$?TranslateMat4@@YAXPEATmat4@@Tv3@@@Z
$pdata$?RotateMat4@@YAXPEATmat4@@MTv3@@@Z DD imagerel ?RotateMat4@@YAXPEATmat4@@MTv3@@@Z
	DD	imagerel ?RotateMat4@@YAXPEATmat4@@MTv3@@@Z+3338
	DD	imagerel $unwind$?RotateMat4@@YAXPEATmat4@@MTv3@@@Z
$pdata$?ScaleMat4@@YAXPEATmat4@@Tv3@@@Z DD imagerel ?ScaleMat4@@YAXPEATmat4@@Tv3@@@Z
	DD	imagerel ?ScaleMat4@@YAXPEATmat4@@Tv3@@@Z+434
	DD	imagerel $unwind$?ScaleMat4@@YAXPEATmat4@@Tv3@@@Z
$pdata$?CreatePerspective@@YAXPEATmat4@@MMMM@Z DD imagerel ?CreatePerspective@@YAXPEATmat4@@MMMM@Z
	DD	imagerel ?CreatePerspective@@YAXPEATmat4@@MMMM@Z+462
	DD	imagerel $unwind$?CreatePerspective@@YAXPEATmat4@@MMMM@Z
$pdata$?CreateOrthographic@@YAXPEATmat4@@MMMMMM@Z DD imagerel ?CreateOrthographic@@YAXPEATmat4@@MMMMMM@Z
	DD	imagerel ?CreateOrthographic@@YAXPEATmat4@@MMMMMM@Z+564
	DD	imagerel $unwind$?CreateOrthographic@@YAXPEATmat4@@MMMMMM@Z
$pdata$?Mat4LookAt@@YAXPEATmat4@@Tv3@@11@Z DD imagerel ?Mat4LookAt@@YAXPEATmat4@@Tv3@@11@Z
	DD	imagerel ?Mat4LookAt@@YAXPEATmat4@@Tv3@@11@Z+1429
	DD	imagerel $unwind$?Mat4LookAt@@YAXPEATmat4@@Tv3@@11@Z
$pdata$??U@YA?AW4ui_type@@W40@0@Z DD imagerel ??U@YA?AW4ui_type@@W40@0@Z
	DD	imagerel ??U@YA?AW4ui_type@@W40@0@Z+35
	DD	imagerel $unwind$??U@YA?AW4ui_type@@W40@0@Z
$pdata$stbtt_BakeFontBitmap DD imagerel $LN3
	DD	imagerel $LN3+111
	DD	imagerel $unwind$stbtt_BakeFontBitmap
$pdata$stbtt_GetBakedQuad DD imagerel $LN5
	DD	imagerel $LN5+547
	DD	imagerel $unwind$stbtt_GetBakedQuad
$pdata$stbtt_GetScaledFontVMetrics DD imagerel $LN5
	DD	imagerel $LN5+265
	DD	imagerel $unwind$stbtt_GetScaledFontVMetrics
$pdata$stbtt_PackBegin DD imagerel $LN10
	DD	imagerel $LN10+419
	DD	imagerel $unwind$stbtt_PackBegin
$pdata$stbtt_PackEnd DD imagerel $LN3
	DD	imagerel $LN3+42
	DD	imagerel $unwind$stbtt_PackEnd
$pdata$stbtt_PackFontRange DD imagerel $LN3
	DD	imagerel $LN3+125
	DD	imagerel $unwind$stbtt_PackFontRange
$pdata$stbtt_PackFontRanges DD imagerel $LN13
	DD	imagerel $LN13+595
	DD	imagerel $unwind$stbtt_PackFontRanges
$pdata$stbtt_PackSetOversampling DD imagerel $LN7
	DD	imagerel $LN7+129
	DD	imagerel $unwind$stbtt_PackSetOversampling
$pdata$stbtt_GetPackedQuad DD imagerel $LN5
	DD	imagerel $LN5+620
	DD	imagerel $unwind$stbtt_GetPackedQuad
$pdata$stbtt_PackFontRangesGatherRects DD imagerel $LN17
	DD	imagerel $LN17+832
	DD	imagerel $unwind$stbtt_PackFontRangesGatherRects
$pdata$stbtt_PackFontRangesPackRects DD imagerel $LN3
	DD	imagerel $LN3+48
	DD	imagerel $unwind$stbtt_PackFontRangesPackRects
$pdata$stbtt_PackFontRangesRenderIntoRects DD imagerel $LN22
	DD	imagerel $LN22+2037
	DD	imagerel $unwind$stbtt_PackFontRangesRenderIntoRects
$pdata$stbtt_GetNumberOfFonts DD imagerel $LN3
	DD	imagerel $LN3+24
	DD	imagerel $unwind$stbtt_GetNumberOfFonts
$pdata$stbtt_GetFontOffsetForIndex DD imagerel $LN3
	DD	imagerel $LN3+32
	DD	imagerel $unwind$stbtt_GetFontOffsetForIndex
$pdata$stbtt_InitFont DD imagerel $LN3
	DD	imagerel $LN3+44
	DD	imagerel $unwind$stbtt_InitFont
$pdata$stbtt_FindGlyphIndex DD imagerel $LN33
	DD	imagerel $LN33+1538
	DD	imagerel $unwind$stbtt_FindGlyphIndex
$pdata$stbtt_ScaleForPixelHeight DD imagerel $LN3
	DD	imagerel $LN3+116
	DD	imagerel $unwind$stbtt_ScaleForPixelHeight
$pdata$stbtt_ScaleForMappingEmToPixels DD imagerel $LN3
	DD	imagerel $LN3+77
	DD	imagerel $unwind$stbtt_ScaleForMappingEmToPixels
$pdata$stbtt_GetFontVMetrics DD imagerel $LN6
	DD	imagerel $LN6+170
	DD	imagerel $unwind$stbtt_GetFontVMetrics
$pdata$stbtt_GetFontVMetricsOS2 DD imagerel $LN7
	DD	imagerel $LN7+210
	DD	imagerel $unwind$stbtt_GetFontVMetricsOS2
$pdata$stbtt_GetFontBoundingBox DD imagerel $LN3
	DD	imagerel $LN3+185
	DD	imagerel $unwind$stbtt_GetFontBoundingBox
$pdata$stbtt_GetCodepointHMetrics DD imagerel $LN3
	DD	imagerel $LN3+64
	DD	imagerel $unwind$stbtt_GetCodepointHMetrics
$pdata$stbtt_GetCodepointKernAdvance DD imagerel $LN4
	DD	imagerel $LN4+100
	DD	imagerel $unwind$stbtt_GetCodepointKernAdvance
$pdata$stbtt_GetCodepointBox DD imagerel $LN3
	DD	imagerel $LN3+84
	DD	imagerel $unwind$stbtt_GetCodepointBox
$pdata$stbtt_GetGlyphHMetrics DD imagerel $LN9
	DD	imagerel $LN9+357
	DD	imagerel $unwind$stbtt_GetGlyphHMetrics
$pdata$stbtt_GetGlyphKernAdvance DD imagerel $LN6
	DD	imagerel $LN6+121
	DD	imagerel $unwind$stbtt_GetGlyphKernAdvance
$pdata$stbtt_GetGlyphBox DD imagerel $LN10
	DD	imagerel $LN10+297
	DD	imagerel $unwind$stbtt_GetGlyphBox
$pdata$stbtt_GetKerningTableLength DD imagerel $LN6
	DD	imagerel $LN6+130
	DD	imagerel $unwind$stbtt_GetKerningTableLength
$pdata$stbtt_GetKerningTable DD imagerel $LN10
	DD	imagerel $LN10+349
	DD	imagerel $unwind$stbtt_GetKerningTable
$pdata$stbtt_IsGlyphEmpty DD imagerel $LN9
	DD	imagerel $LN9+185
	DD	imagerel $unwind$stbtt_IsGlyphEmpty
$pdata$stbtt_GetCodepointShape DD imagerel $LN3
	DD	imagerel $LN3+54
	DD	imagerel $unwind$stbtt_GetCodepointShape
$pdata$stbtt_GetGlyphShape DD imagerel $LN5
	DD	imagerel $LN5+76
	DD	imagerel $unwind$stbtt_GetGlyphShape
$pdata$stbtt_FreeShape DD imagerel $LN3
	DD	imagerel $LN3+29
	DD	imagerel $unwind$stbtt_FreeShape
$pdata$stbtt_FindSVGDoc DD imagerel $LN7
	DD	imagerel $LN7+200
	DD	imagerel $unwind$stbtt_FindSVGDoc
$pdata$stbtt_GetCodepointSVG DD imagerel $LN3
	DD	imagerel $LN3+54
	DD	imagerel $unwind$stbtt_GetCodepointSVG
$pdata$stbtt_GetGlyphSVG DD imagerel $LN6
	DD	imagerel $LN6+162
	DD	imagerel $unwind$stbtt_GetGlyphSVG
$pdata$stbtt_FreeBitmap DD imagerel $LN3
	DD	imagerel $LN3+29
	DD	imagerel $unwind$stbtt_FreeBitmap
$pdata$stbtt_GetCodepointBitmap DD imagerel $LN3
	DD	imagerel $LN3+125
	DD	imagerel $unwind$stbtt_GetCodepointBitmap
$pdata$stbtt_GetCodepointBitmapSubpixel DD imagerel $LN3
	DD	imagerel $LN3+148
	DD	imagerel $unwind$stbtt_GetCodepointBitmapSubpixel
$pdata$stbtt_MakeCodepointBitmap DD imagerel $LN3
	DD	imagerel $LN3+124
	DD	imagerel $unwind$stbtt_MakeCodepointBitmap
$pdata$stbtt_MakeCodepointBitmapSubpixel DD imagerel $LN3
	DD	imagerel $LN3+146
	DD	imagerel $unwind$stbtt_MakeCodepointBitmapSubpixel
$pdata$stbtt_MakeCodepointBitmapSubpixelPrefilter DD imagerel $LN3
	DD	imagerel $LN3+209
	DD	imagerel $unwind$stbtt_MakeCodepointBitmapSubpixelPrefilter
$pdata$stbtt_GetCodepointBitmapBox DD imagerel $LN3
	DD	imagerel $LN3+126
	DD	imagerel $unwind$stbtt_GetCodepointBitmapBox
$pdata$stbtt_GetCodepointBitmapBoxSubpixel DD imagerel $LN3
	DD	imagerel $LN3+150
	DD	imagerel $unwind$stbtt_GetCodepointBitmapBoxSubpixel
$pdata$stbtt_GetGlyphBitmap DD imagerel $LN3
	DD	imagerel $LN3+125
	DD	imagerel $unwind$stbtt_GetGlyphBitmap
$pdata$stbtt_GetGlyphBitmapSubpixel DD imagerel $LN12
	DD	imagerel $LN12+683
	DD	imagerel $unwind$stbtt_GetGlyphBitmapSubpixel
$pdata$stbtt_MakeGlyphBitmap DD imagerel $LN3
	DD	imagerel $LN3+124
	DD	imagerel $unwind$stbtt_MakeGlyphBitmap
$pdata$stbtt_MakeGlyphBitmapSubpixel DD imagerel $LN4
	DD	imagerel $LN4+382
	DD	imagerel $unwind$stbtt_MakeGlyphBitmapSubpixel
$pdata$stbtt_MakeGlyphBitmapSubpixelPrefilter DD imagerel $LN5
	DD	imagerel $LN5+310
	DD	imagerel $unwind$stbtt_MakeGlyphBitmapSubpixelPrefilter
$pdata$stbtt_GetGlyphBitmapBox DD imagerel $LN3
	DD	imagerel $LN3+126
	DD	imagerel $unwind$stbtt_GetGlyphBitmapBox
$pdata$stbtt_GetGlyphBitmapBoxSubpixel DD imagerel $LN13
	DD	imagerel $LN13+415
	DD	imagerel $unwind$stbtt_GetGlyphBitmapBoxSubpixel
$pdata$stbtt_Rasterize DD imagerel $LN6
	DD	imagerel $LN6+353
	DD	imagerel $unwind$stbtt_Rasterize
$pdata$stbtt_FreeSDF DD imagerel $LN3
	DD	imagerel $LN3+29
	DD	imagerel $unwind$stbtt_FreeSDF
$pdata$stbtt_GetGlyphSDF DD imagerel $LN83
	DD	imagerel $LN83+6480
	DD	imagerel $unwind$stbtt_GetGlyphSDF
$pdata$stbtt_GetCodepointSDF DD imagerel $LN3
	DD	imagerel $LN3+147
	DD	imagerel $unwind$stbtt_GetCodepointSDF
$pdata$stbtt_FindMatchingFont DD imagerel $LN3
	DD	imagerel $LN3+44
	DD	imagerel $unwind$stbtt_FindMatchingFont
$pdata$stbtt_CompareUTF8toUTF16_bigendian DD imagerel $LN3
	DD	imagerel $LN3+52
	DD	imagerel $unwind$stbtt_CompareUTF8toUTF16_bigendian
$pdata$stbtt_GetFontNameString DD imagerel $LN8
	DD	imagerel $LN8+445
	DD	imagerel $unwind$stbtt_GetFontNameString
$pdata$?StringLength@@YAHPEAD@Z DD imagerel ?StringLength@@YAHPEAD@Z
	DD	imagerel ?StringLength@@YAHPEAD@Z+76
	DD	imagerel $unwind$?StringLength@@YAHPEAD@Z
$pdata$?CreateString@@YA?AUstring8@@PEAD@Z DD imagerel ?CreateString@@YA?AUstring8@@PEAD@Z
	DD	imagerel ?CreateString@@YA?AUstring8@@PEAD@Z+72
	DD	imagerel $unwind$?CreateString@@YA?AUstring8@@PEAD@Z
$pdata$?StringConcat@@YAXPEAUstring8@@U1@@Z DD imagerel ?StringConcat@@YAXPEAUstring8@@U1@@Z
	DD	imagerel ?StringConcat@@YAXPEAUstring8@@U1@@Z+155
	DD	imagerel $unwind$?StringConcat@@YAXPEAUstring8@@U1@@Z
$pdata$?CompareStringBinary@@YAHUstring8@@0@Z DD imagerel ?CompareStringBinary@@YAHUstring8@@0@Z
	DD	imagerel ?CompareStringBinary@@YAHUstring8@@0@Z+118
	DD	imagerel $unwind$?CompareStringBinary@@YAHUstring8@@0@Z
$pdata$?GetPathNoFileName@@YAXPEAUstring8@@U1@@Z DD imagerel ?GetPathNoFileName@@YAXPEAUstring8@@U1@@Z
	DD	imagerel ?GetPathNoFileName@@YAXPEAUstring8@@U1@@Z+174
	DD	imagerel $unwind$?GetPathNoFileName@@YAXPEAUstring8@@U1@@Z
$pdata$?InitializeCamera@@YAXPEAUcamera@@Tv3@@11MMM@Z DD imagerel ?InitializeCamera@@YAXPEAUcamera@@Tv3@@11MMM@Z
	DD	imagerel ?InitializeCamera@@YAXPEAUcamera@@Tv3@@11MMM@Z+150
	DD	imagerel $unwind$?InitializeCamera@@YAXPEAUcamera@@Tv3@@11MMM@Z
$pdata$?GetCameraView@@YAXPEAUcamera@@PEATmat4@@@Z DD imagerel ?GetCameraView@@YAXPEAUcamera@@PEATmat4@@@Z
	DD	imagerel ?GetCameraView@@YAXPEAUcamera@@PEATmat4@@@Z+258
	DD	imagerel $unwind$?GetCameraView@@YAXPEAUcamera@@PEATmat4@@@Z
$pdata$?RenderLine@@YAXTv4@@Tv2@@1PEATmat4@@M@Z DD imagerel ?RenderLine@@YAXTv4@@Tv2@@1PEATmat4@@M@Z
	DD	imagerel ?RenderLine@@YAXTv4@@Tv2@@1PEATmat4@@M@Z+855
	DD	imagerel $unwind$?RenderLine@@YAXTv4@@Tv2@@1PEATmat4@@M@Z
$pdata$?RenderBox@@YAXTv2@@0Tv4@@MPEATmat4@@M@Z DD imagerel ?RenderBox@@YAXTv2@@0Tv4@@MPEATmat4@@M@Z
	DD	imagerel ?RenderBox@@YAXTv2@@0Tv4@@MPEATmat4@@M@Z+773
	DD	imagerel $unwind$?RenderBox@@YAXTv2@@0Tv4@@MPEATmat4@@M@Z
$pdata$?UIImage@@YAHUloaded_image@@Tv2@@1Tv4@@PEATmat4@@MHHHPEAX@Z DD imagerel ?UIImage@@YAHUloaded_image@@Tv2@@1Tv4@@PEATmat4@@MHHHPEAX@Z
	DD	imagerel ?UIImage@@YAHUloaded_image@@Tv2@@1Tv4@@PEATmat4@@MHHHPEAX@Z+2712
	DD	imagerel $unwind$?UIImage@@YAHUloaded_image@@Tv2@@1Tv4@@PEATmat4@@MHHHPEAX@Z
$pdata$?UIString@@YAHTv2@@PEADPEAUfont@@Tv4@@PEATmat4@@MHHPEAM@Z DD imagerel ?UIString@@YAHTv2@@PEADPEAUfont@@Tv4@@PEATmat4@@MHHPEAM@Z
	DD	imagerel ?UIString@@YAHTv2@@PEADPEAUfont@@Tv4@@PEATmat4@@MHHPEAM@Z+1674
	DD	imagerel $unwind$?UIString@@YAHTv2@@PEADPEAUfont@@Tv4@@PEATmat4@@MHHPEAM@Z
$pdata$?UIToggle@@YAHTv2@@0MPEADPEAUfont@@Tv4@@3PEATmat4@@MHHH@Z DD imagerel ?UIToggle@@YAHTv2@@0MPEADPEAUfont@@Tv4@@3PEATmat4@@MHHH@Z
	DD	imagerel ?UIToggle@@YAHTv2@@0MPEADPEAUfont@@Tv4@@3PEATmat4@@MHHH@Z+1796
	DD	imagerel $unwind$?UIToggle@@YAHTv2@@0MPEADPEAUfont@@Tv4@@3PEATmat4@@MHHH@Z
$pdata$stbi_load_from_memory DD imagerel $LN3
	DD	imagerel $LN3+139
	DD	imagerel $unwind$stbi_load_from_memory
$pdata$stbi_load_from_callbacks DD imagerel $LN3
	DD	imagerel $LN3+140
	DD	imagerel $unwind$stbi_load_from_callbacks
$pdata$stbi_load DD imagerel $LN6
	DD	imagerel $LN6+156
	DD	imagerel $unwind$stbi_load
$pdata$stbi_load_from_file DD imagerel $LN4
	DD	imagerel $LN4+195
	DD	imagerel $unwind$stbi_load_from_file
$pdata$stbi_load_gif_from_memory DD imagerel $LN6
	DD	imagerel $LN6+315
	DD	imagerel $unwind$stbi_load_gif_from_memory
$pdata$stbi_load_16_from_memory DD imagerel $LN3
	DD	imagerel $LN3+139
	DD	imagerel $unwind$stbi_load_16_from_memory
$pdata$stbi_load_16_from_callbacks DD imagerel $LN3
	DD	imagerel $LN3+140
	DD	imagerel $unwind$stbi_load_16_from_callbacks
$pdata$stbi_load_16 DD imagerel $LN6
	DD	imagerel $LN6+156
	DD	imagerel $unwind$stbi_load_16
$pdata$stbi_load_from_file_16 DD imagerel $LN4
	DD	imagerel $LN4+195
	DD	imagerel $unwind$stbi_load_from_file_16
$pdata$stbi_loadf_from_memory DD imagerel $LN3
	DD	imagerel $LN3+139
	DD	imagerel $unwind$stbi_loadf_from_memory
$pdata$stbi_loadf_from_callbacks DD imagerel $LN3
	DD	imagerel $LN3+140
	DD	imagerel $unwind$stbi_loadf_from_callbacks
$pdata$stbi_loadf DD imagerel $LN6
	DD	imagerel $LN6+156
	DD	imagerel $unwind$stbi_loadf
$pdata$stbi_loadf_from_file DD imagerel $LN3
	DD	imagerel $LN3+132
	DD	imagerel $unwind$stbi_loadf_from_file
$pdata$stbi_is_hdr_from_callbacks DD imagerel $LN3
	DD	imagerel $LN3+95
	DD	imagerel $unwind$stbi_is_hdr_from_callbacks
$pdata$stbi_is_hdr_from_memory DD imagerel $LN3
	DD	imagerel $LN3+94
	DD	imagerel $unwind$stbi_is_hdr_from_memory
$pdata$stbi_is_hdr DD imagerel $LN4
	DD	imagerel $LN4+80
	DD	imagerel $unwind$stbi_is_hdr
$pdata$stbi_is_hdr_from_file DD imagerel $LN3
	DD	imagerel $LN3+127
	DD	imagerel $unwind$stbi_is_hdr_from_file
$pdata$stbi_image_free DD imagerel $LN3
	DD	imagerel $LN3+24
	DD	imagerel $unwind$stbi_image_free
$pdata$stbi_info_from_memory DD imagerel $LN3
	DD	imagerel $LN3+128
	DD	imagerel $unwind$stbi_info_from_memory
$pdata$stbi_info_from_callbacks DD imagerel $LN3
	DD	imagerel $LN3+129
	DD	imagerel $unwind$stbi_info_from_callbacks
$pdata$stbi_is_16_bit_from_memory DD imagerel $LN3
	DD	imagerel $LN3+94
	DD	imagerel $unwind$stbi_is_16_bit_from_memory
$pdata$stbi_is_16_bit_from_callbacks DD imagerel $LN3
	DD	imagerel $LN3+95
	DD	imagerel $unwind$stbi_is_16_bit_from_callbacks
$pdata$stbi_info DD imagerel $LN4
	DD	imagerel $LN4+116
	DD	imagerel $unwind$stbi_info
$pdata$stbi_info_from_file DD imagerel $LN3
	DD	imagerel $LN3+166
	DD	imagerel $unwind$stbi_info_from_file
$pdata$stbi_is_16_bit DD imagerel $LN4
	DD	imagerel $LN4+86
	DD	imagerel $unwind$stbi_is_16_bit
$pdata$stbi_is_16_bit_from_file DD imagerel $LN3
	DD	imagerel $LN3+127
	DD	imagerel $unwind$stbi_is_16_bit_from_file
$pdata$stbi_zlib_decode_malloc_guesssize DD imagerel $LN7
	DD	imagerel $LN7+249
	DD	imagerel $unwind$stbi_zlib_decode_malloc_guesssize
$pdata$stbi_zlib_decode_malloc_guesssize_headerflag DD imagerel $LN7
	DD	imagerel $LN7+252
	DD	imagerel $unwind$stbi_zlib_decode_malloc_guesssize_headerflag
$pdata$stbi_zlib_decode_malloc DD imagerel $LN3
	DD	imagerel $LN3+48
	DD	imagerel $unwind$stbi_zlib_decode_malloc
$pdata$stbi_zlib_decode_buffer DD imagerel $LN5
	DD	imagerel $LN5+180
	DD	imagerel $unwind$stbi_zlib_decode_buffer
$pdata$stbi_zlib_decode_noheader_malloc DD imagerel $LN7
	DD	imagerel $LN7+236
	DD	imagerel $unwind$stbi_zlib_decode_noheader_malloc
$pdata$stbi_zlib_decode_noheader_buffer DD imagerel $LN5
	DD	imagerel $LN5+180
	DD	imagerel $unwind$stbi_zlib_decode_noheader_buffer
$pdata$?stbi__cpuid3@@YAHXZ DD imagerel ?stbi__cpuid3@@YAHXZ
	DD	imagerel ?stbi__cpuid3@@YAHXZ+80
	DD	imagerel $unwind$?stbi__cpuid3@@YAHXZ
$pdata$?stbi__sse2_available@@YAHXZ DD imagerel ?stbi__sse2_available@@YAHXZ
	DD	imagerel ?stbi__sse2_available@@YAHXZ+54
	DD	imagerel $unwind$?stbi__sse2_available@@YAHXZ
$pdata$?stbi__refill_buffer@@YAXPEAUstbi__context@@@Z DD imagerel ?stbi__refill_buffer@@YAXPEAUstbi__context@@@Z
	DD	imagerel ?stbi__refill_buffer@@YAXPEAUstbi__context@@@Z+231
	DD	imagerel $unwind$?stbi__refill_buffer@@YAXPEAUstbi__context@@@Z
$pdata$?stbi__start_mem@@YAXPEAUstbi__context@@PEBEH@Z DD imagerel ?stbi__start_mem@@YAXPEAUstbi__context@@PEBEH@Z
	DD	imagerel ?stbi__start_mem@@YAXPEAUstbi__context@@PEBEH@Z+147
	DD	imagerel $unwind$?stbi__start_mem@@YAXPEAUstbi__context@@PEBEH@Z
$pdata$?stbi__start_callbacks@@YAXPEAUstbi__context@@PEAUstbi_io_callbacks@@PEAX@Z DD imagerel ?stbi__start_callbacks@@YAXPEAUstbi__context@@PEAUstbi_io_callbacks@@PEAX@Z
	DD	imagerel ?stbi__start_callbacks@@YAXPEAUstbi__context@@PEAUstbi_io_callbacks@@PEAX@Z+184
	DD	imagerel $unwind$?stbi__start_callbacks@@YAXPEAUstbi__context@@PEAUstbi_io_callbacks@@PEAX@Z
$pdata$?stbi__stdio_read@@YAHPEAXPEADH@Z DD imagerel ?stbi__stdio_read@@YAHPEAXPEADH@Z
	DD	imagerel ?stbi__stdio_read@@YAHPEAXPEADH@Z+52
	DD	imagerel $unwind$?stbi__stdio_read@@YAHPEAXPEADH@Z
$pdata$?stbi__stdio_skip@@YAXPEAXH@Z DD imagerel ?stbi__stdio_skip@@YAXPEAXH@Z
	DD	imagerel ?stbi__stdio_skip@@YAXPEAXH@Z+73
	DD	imagerel $unwind$?stbi__stdio_skip@@YAXPEAXH@Z
$pdata$?stbi__stdio_eof@@YAHPEAX@Z DD imagerel ?stbi__stdio_eof@@YAHPEAX@Z
	DD	imagerel ?stbi__stdio_eof@@YAHPEAX@Z+64
	DD	imagerel $unwind$?stbi__stdio_eof@@YAHPEAX@Z
$pdata$?stbi__start_file@@YAXPEAUstbi__context@@PEAU_iobuf@@@Z DD imagerel ?stbi__start_file@@YAXPEAUstbi__context@@PEAU_iobuf@@@Z
	DD	imagerel ?stbi__start_file@@YAXPEAUstbi__context@@PEAU_iobuf@@@Z+41
	DD	imagerel $unwind$?stbi__start_file@@YAXPEAUstbi__context@@PEAU_iobuf@@@Z
$pdata$?stbi__jpeg_test@@YAHPEAUstbi__context@@@Z DD imagerel ?stbi__jpeg_test@@YAHPEAUstbi__context@@@Z
	DD	imagerel ?stbi__jpeg_test@@YAHPEAUstbi__context@@@Z+117
	DD	imagerel $unwind$?stbi__jpeg_test@@YAHPEAUstbi__context@@@Z
$pdata$?stbi__jpeg_load@@YAPEAXPEAUstbi__context@@PEAH11HPEAUstbi__result_info@@@Z DD imagerel ?stbi__jpeg_load@@YAPEAXPEAUstbi__context@@PEAH11HPEAUstbi__result_info@@@Z
	DD	imagerel ?stbi__jpeg_load@@YAPEAXPEAUstbi__context@@PEAH11HPEAUstbi__result_info@@@Z+172
	DD	imagerel $unwind$?stbi__jpeg_load@@YAPEAXPEAUstbi__context@@PEAH11HPEAUstbi__result_info@@@Z
$pdata$?stbi__jpeg_info@@YAHPEAUstbi__context@@PEAH11@Z DD imagerel ?stbi__jpeg_info@@YAHPEAUstbi__context@@PEAH11@Z
	DD	imagerel ?stbi__jpeg_info@@YAHPEAUstbi__context@@PEAH11@Z+122
	DD	imagerel $unwind$?stbi__jpeg_info@@YAHPEAUstbi__context@@PEAH11@Z
$pdata$?stbi__png_test@@YAHPEAUstbi__context@@@Z DD imagerel ?stbi__png_test@@YAHPEAUstbi__context@@@Z
	DD	imagerel ?stbi__png_test@@YAHPEAUstbi__context@@@Z+42
	DD	imagerel $unwind$?stbi__png_test@@YAHPEAUstbi__context@@@Z
$pdata$?stbi__png_load@@YAPEAXPEAUstbi__context@@PEAH11HPEAUstbi__result_info@@@Z DD imagerel ?stbi__png_load@@YAPEAXPEAUstbi__context@@PEAH11HPEAUstbi__result_info@@@Z
	DD	imagerel ?stbi__png_load@@YAPEAXPEAUstbi__context@@PEAH11HPEAUstbi__result_info@@@Z+94
	DD	imagerel $unwind$?stbi__png_load@@YAPEAXPEAUstbi__context@@PEAH11HPEAUstbi__result_info@@@Z
$pdata$?stbi__png_info@@YAHPEAUstbi__context@@PEAH11@Z DD imagerel ?stbi__png_info@@YAHPEAUstbi__context@@PEAH11@Z
	DD	imagerel ?stbi__png_info@@YAHPEAUstbi__context@@PEAH11@Z+64
	DD	imagerel $unwind$?stbi__png_info@@YAHPEAUstbi__context@@PEAH11@Z
$pdata$?stbi__png_is16@@YAHPEAUstbi__context@@@Z DD imagerel ?stbi__png_is16@@YAHPEAUstbi__context@@@Z
	DD	imagerel ?stbi__png_is16@@YAHPEAUstbi__context@@@Z+76
	DD	imagerel $unwind$?stbi__png_is16@@YAHPEAUstbi__context@@@Z
$pdata$?stbi__bmp_test@@YAHPEAUstbi__context@@@Z DD imagerel ?stbi__bmp_test@@YAHPEAUstbi__context@@@Z
	DD	imagerel ?stbi__bmp_test@@YAHPEAUstbi__context@@@Z+42
	DD	imagerel $unwind$?stbi__bmp_test@@YAHPEAUstbi__context@@@Z
$pdata$?stbi__bmp_load@@YAPEAXPEAUstbi__context@@PEAH11HPEAUstbi__result_info@@@Z DD imagerel ?stbi__bmp_load@@YAPEAXPEAUstbi__context@@PEAH11HPEAUstbi__result_info@@@Z
	DD	imagerel ?stbi__bmp_load@@YAPEAXPEAUstbi__context@@PEAH11HPEAUstbi__result_info@@@Z+4551
	DD	imagerel $unwind$?stbi__bmp_load@@YAPEAXPEAUstbi__context@@PEAH11HPEAUstbi__result_info@@@Z
$pdata$?stbi__bmp_info@@YAHPEAUstbi__context@@PEAH11@Z DD imagerel ?stbi__bmp_info@@YAHPEAUstbi__context@@PEAH11@Z
	DD	imagerel ?stbi__bmp_info@@YAHPEAUstbi__context@@PEAH11@Z+249
	DD	imagerel $unwind$?stbi__bmp_info@@YAHPEAUstbi__context@@PEAH11@Z
$pdata$?stbi__tga_test@@YAHPEAUstbi__context@@@Z DD imagerel ?stbi__tga_test@@YAHPEAUstbi__context@@@Z
	DD	imagerel ?stbi__tga_test@@YAHPEAUstbi__context@@@Z+402
	DD	imagerel $unwind$?stbi__tga_test@@YAHPEAUstbi__context@@@Z
$pdata$?stbi__tga_load@@YAPEAXPEAUstbi__context@@PEAH11HPEAUstbi__result_info@@@Z DD imagerel ?stbi__tga_load@@YAPEAXPEAUstbi__context@@PEAH11HPEAUstbi__result_info@@@Z
	DD	imagerel ?stbi__tga_load@@YAPEAXPEAUstbi__context@@PEAH11HPEAUstbi__result_info@@@Z+2643
	DD	imagerel $unwind$?stbi__tga_load@@YAPEAXPEAUstbi__context@@PEAH11HPEAUstbi__result_info@@@Z
$pdata$?stbi__tga_info@@YAHPEAUstbi__context@@PEAH11@Z DD imagerel ?stbi__tga_info@@YAHPEAUstbi__context@@PEAH11@Z
	DD	imagerel ?stbi__tga_info@@YAHPEAUstbi__context@@PEAH11@Z+612
	DD	imagerel $unwind$?stbi__tga_info@@YAHPEAUstbi__context@@PEAH11@Z
$pdata$?stbi__psd_test@@YAHPEAUstbi__context@@@Z DD imagerel ?stbi__psd_test@@YAHPEAUstbi__context@@@Z
	DD	imagerel ?stbi__psd_test@@YAHPEAUstbi__context@@@Z+71
	DD	imagerel $unwind$?stbi__psd_test@@YAHPEAUstbi__context@@@Z
$pdata$?stbi__psd_load@@YAPEAXPEAUstbi__context@@PEAH11HPEAUstbi__result_info@@H@Z DD imagerel ?stbi__psd_load@@YAPEAXPEAUstbi__context@@PEAH11HPEAUstbi__result_info@@H@Z
	DD	imagerel ?stbi__psd_load@@YAPEAXPEAUstbi__context@@PEAH11HPEAUstbi__result_info@@H@Z+2963
	DD	imagerel $unwind$?stbi__psd_load@@YAPEAXPEAUstbi__context@@PEAH11HPEAUstbi__result_info@@H@Z
$pdata$?stbi__psd_info@@YAHPEAUstbi__context@@PEAH11@Z DD imagerel ?stbi__psd_info@@YAHPEAUstbi__context@@PEAH11@Z
	DD	imagerel ?stbi__psd_info@@YAHPEAUstbi__context@@PEAH11@Z+327
	DD	imagerel $unwind$?stbi__psd_info@@YAHPEAUstbi__context@@PEAH11@Z
$pdata$?stbi__psd_is16@@YAHPEAUstbi__context@@@Z DD imagerel ?stbi__psd_is16@@YAHPEAUstbi__context@@@Z
	DD	imagerel ?stbi__psd_is16@@YAHPEAUstbi__context@@@Z+194
	DD	imagerel $unwind$?stbi__psd_is16@@YAHPEAUstbi__context@@@Z
$pdata$?stbi__hdr_test@@YAHPEAUstbi__context@@@Z DD imagerel ?stbi__hdr_test@@YAHPEAUstbi__context@@@Z
	DD	imagerel ?stbi__hdr_test@@YAHPEAUstbi__context@@@Z+87
	DD	imagerel $unwind$?stbi__hdr_test@@YAHPEAUstbi__context@@@Z
$pdata$?stbi__hdr_load@@YAPEAMPEAUstbi__context@@PEAH11HPEAUstbi__result_info@@@Z DD imagerel ?stbi__hdr_load@@YAPEAMPEAUstbi__context@@PEAH11HPEAUstbi__result_info@@@Z
	DD	imagerel ?stbi__hdr_load@@YAPEAMPEAUstbi__context@@PEAH11HPEAUstbi__result_info@@@Z+2389
	DD	imagerel $unwind$?stbi__hdr_load@@YAPEAMPEAUstbi__context@@PEAH11HPEAUstbi__result_info@@@Z
$pdata$?stbi__hdr_info@@YAHPEAUstbi__context@@PEAH11@Z DD imagerel ?stbi__hdr_info@@YAHPEAUstbi__context@@PEAH11@Z
	DD	imagerel ?stbi__hdr_info@@YAHPEAUstbi__context@@PEAH11@Z+561
	DD	imagerel $unwind$?stbi__hdr_info@@YAHPEAUstbi__context@@PEAH11@Z
$pdata$?stbi__pic_test@@YAHPEAUstbi__context@@@Z DD imagerel ?stbi__pic_test@@YAHPEAUstbi__context@@@Z
	DD	imagerel ?stbi__pic_test@@YAHPEAUstbi__context@@@Z+42
	DD	imagerel $unwind$?stbi__pic_test@@YAHPEAUstbi__context@@@Z
$pdata$?stbi__pic_load@@YAPEAXPEAUstbi__context@@PEAH11HPEAUstbi__result_info@@@Z DD imagerel ?stbi__pic_load@@YAPEAXPEAUstbi__context@@PEAH11HPEAUstbi__result_info@@@Z
	DD	imagerel ?stbi__pic_load@@YAPEAXPEAUstbi__context@@PEAH11HPEAUstbi__result_info@@@Z+689
	DD	imagerel $unwind$?stbi__pic_load@@YAPEAXPEAUstbi__context@@PEAH11HPEAUstbi__result_info@@@Z
$pdata$?stbi__pic_info@@YAHPEAUstbi__context@@PEAH11@Z DD imagerel ?stbi__pic_info@@YAHPEAUstbi__context@@PEAH11@Z
	DD	imagerel ?stbi__pic_info@@YAHPEAUstbi__context@@PEAH11@Z+642
	DD	imagerel $unwind$?stbi__pic_info@@YAHPEAUstbi__context@@PEAH11@Z
$pdata$?stbi__gif_test@@YAHPEAUstbi__context@@@Z DD imagerel ?stbi__gif_test@@YAHPEAUstbi__context@@@Z
	DD	imagerel ?stbi__gif_test@@YAHPEAUstbi__context@@@Z+42
	DD	imagerel $unwind$?stbi__gif_test@@YAHPEAUstbi__context@@@Z
$pdata$?stbi__gif_load@@YAPEAXPEAUstbi__context@@PEAH11HPEAUstbi__result_info@@@Z DD imagerel ?stbi__gif_load@@YAPEAXPEAUstbi__context@@PEAH11HPEAUstbi__result_info@@@Z
	DD	imagerel ?stbi__gif_load@@YAPEAXPEAUstbi__context@@PEAH11HPEAUstbi__result_info@@@Z+317
	DD	imagerel $unwind$?stbi__gif_load@@YAPEAXPEAUstbi__context@@PEAH11HPEAUstbi__result_info@@@Z
$pdata$?stbi__load_gif_main@@YAPEAXPEAUstbi__context@@PEAPEAHPEAH222H@Z DD imagerel ?stbi__load_gif_main@@YAPEAXPEAUstbi__context@@PEAPEAHPEAH222H@Z
	DD	imagerel ?stbi__load_gif_main@@YAPEAXPEAUstbi__context@@PEAPEAHPEAH222H@Z+1008
	DD	imagerel $unwind$?stbi__load_gif_main@@YAPEAXPEAUstbi__context@@PEAPEAHPEAH222H@Z
$pdata$?stbi__gif_info@@YAHPEAUstbi__context@@PEAH11@Z DD imagerel ?stbi__gif_info@@YAHPEAUstbi__context@@PEAH11@Z
	DD	imagerel ?stbi__gif_info@@YAHPEAUstbi__context@@PEAH11@Z+54
	DD	imagerel $unwind$?stbi__gif_info@@YAHPEAUstbi__context@@PEAH11@Z
$pdata$?stbi__pnm_test@@YAHPEAUstbi__context@@@Z DD imagerel ?stbi__pnm_test@@YAHPEAUstbi__context@@@Z
	DD	imagerel ?stbi__pnm_test@@YAHPEAUstbi__context@@@Z+91
	DD	imagerel $unwind$?stbi__pnm_test@@YAHPEAUstbi__context@@@Z
$pdata$?stbi__pnm_load@@YAPEAXPEAUstbi__context@@PEAH11HPEAUstbi__result_info@@@Z DD imagerel ?stbi__pnm_load@@YAPEAXPEAUstbi__context@@PEAH11HPEAUstbi__result_info@@@Z
	DD	imagerel ?stbi__pnm_load@@YAPEAXPEAUstbi__context@@PEAH11HPEAUstbi__result_info@@@Z+661
	DD	imagerel $unwind$?stbi__pnm_load@@YAPEAXPEAUstbi__context@@PEAH11HPEAUstbi__result_info@@@Z
$pdata$?stbi__pnm_info@@YAHPEAUstbi__context@@PEAH11@Z DD imagerel ?stbi__pnm_info@@YAHPEAUstbi__context@@PEAH11@Z
	DD	imagerel ?stbi__pnm_info@@YAHPEAUstbi__context@@PEAH11@Z+379
	DD	imagerel $unwind$?stbi__pnm_info@@YAHPEAUstbi__context@@PEAH11@Z
$pdata$?stbi__pnm_is16@@YAHPEAUstbi__context@@@Z DD imagerel ?stbi__pnm_is16@@YAHPEAUstbi__context@@@Z
	DD	imagerel ?stbi__pnm_is16@@YAHPEAUstbi__context@@@Z+46
	DD	imagerel $unwind$?stbi__pnm_is16@@YAHPEAUstbi__context@@@Z
$pdata$?stbi__malloc@@YAPEAX_K@Z DD imagerel ?stbi__malloc@@YAPEAX_K@Z
	DD	imagerel ?stbi__malloc@@YAPEAX_K@Z+24
	DD	imagerel $unwind$?stbi__malloc@@YAPEAX_K@Z
$pdata$?stbi__addsizes_valid@@YAHHH@Z DD imagerel ?stbi__addsizes_valid@@YAHHH@Z
	DD	imagerel ?stbi__addsizes_valid@@YAHHH@Z+62
	DD	imagerel $unwind$?stbi__addsizes_valid@@YAHHH@Z
$pdata$?stbi__mul2sizes_valid@@YAHHH@Z DD imagerel ?stbi__mul2sizes_valid@@YAHHH@Z
	DD	imagerel ?stbi__mul2sizes_valid@@YAHHH@Z+84
	DD	imagerel $unwind$?stbi__mul2sizes_valid@@YAHHH@Z
$pdata$?stbi__mad2sizes_valid@@YAHHHH@Z DD imagerel ?stbi__mad2sizes_valid@@YAHHHH@Z
	DD	imagerel ?stbi__mad2sizes_valid@@YAHHHH@Z+85
	DD	imagerel $unwind$?stbi__mad2sizes_valid@@YAHHHH@Z
$pdata$?stbi__mad3sizes_valid@@YAHHHHH@Z DD imagerel ?stbi__mad3sizes_valid@@YAHHHHH@Z
	DD	imagerel ?stbi__mad3sizes_valid@@YAHHHHH@Z+119
	DD	imagerel $unwind$?stbi__mad3sizes_valid@@YAHHHHH@Z
$pdata$?stbi__mad4sizes_valid@@YAHHHHHH@Z DD imagerel ?stbi__mad4sizes_valid@@YAHHHHHH@Z
	DD	imagerel ?stbi__mad4sizes_valid@@YAHHHHHH@Z+153
	DD	imagerel $unwind$?stbi__mad4sizes_valid@@YAHHHHHH@Z
$pdata$?stbi__malloc_mad2@@YAPEAXHHH@Z DD imagerel ?stbi__malloc_mad2@@YAPEAXHHH@Z
	DD	imagerel ?stbi__malloc_mad2@@YAPEAXHHH@Z+71
	DD	imagerel $unwind$?stbi__malloc_mad2@@YAPEAXHHH@Z
$pdata$?stbi__malloc_mad3@@YAPEAXHHHH@Z DD imagerel ?stbi__malloc_mad3@@YAPEAXHHHH@Z
	DD	imagerel ?stbi__malloc_mad3@@YAPEAXHHHH@Z+86
	DD	imagerel $unwind$?stbi__malloc_mad3@@YAPEAXHHHH@Z
$pdata$?stbi__malloc_mad4@@YAPEAXHHHHH@Z DD imagerel ?stbi__malloc_mad4@@YAPEAXHHHHH@Z
	DD	imagerel ?stbi__malloc_mad4@@YAPEAXHHHHH@Z+99
	DD	imagerel $unwind$?stbi__malloc_mad4@@YAPEAXHHHHH@Z
$pdata$?stbi__ldr_to_hdr@@YAPEAMPEAEHHH@Z DD imagerel ?stbi__ldr_to_hdr@@YAPEAMPEAEHHH@Z
	DD	imagerel ?stbi__ldr_to_hdr@@YAPEAMPEAEHHH@Z+466
	DD	imagerel $unwind$?stbi__ldr_to_hdr@@YAPEAMPEAEHHH@Z
$pdata$?stbi__hdr_to_ldr@@YAPEAEPEAMHHH@Z DD imagerel ?stbi__hdr_to_ldr@@YAPEAEPEAMHHH@Z
	DD	imagerel ?stbi__hdr_to_ldr@@YAPEAEPEAMHHH@Z+549
	DD	imagerel $unwind$?stbi__hdr_to_ldr@@YAPEAEPEAMHHH@Z
$pdata$?stbi__load_main@@YAPEAXPEAUstbi__context@@PEAH11HPEAUstbi__result_info@@H@Z DD imagerel ?stbi__load_main@@YAPEAXPEAUstbi__context@@PEAH11HPEAUstbi__result_info@@H@Z
	DD	imagerel ?stbi__load_main@@YAPEAXPEAUstbi__context@@PEAH11HPEAUstbi__result_info@@H@Z+817
	DD	imagerel $unwind$?stbi__load_main@@YAPEAXPEAUstbi__context@@PEAH11HPEAUstbi__result_info@@H@Z
$pdata$?stbi__convert_16_to_8@@YAPEAEPEAGHHH@Z DD imagerel ?stbi__convert_16_to_8@@YAPEAEPEAGHHH@Z
	DD	imagerel ?stbi__convert_16_to_8@@YAPEAEPEAGHHH@Z+195
	DD	imagerel $unwind$?stbi__convert_16_to_8@@YAPEAEPEAGHHH@Z
$pdata$?stbi__convert_8_to_16@@YAPEAGPEAEHHH@Z DD imagerel ?stbi__convert_8_to_16@@YAPEAGPEAEHHH@Z
	DD	imagerel ?stbi__convert_8_to_16@@YAPEAGPEAEHHH@Z+210
	DD	imagerel $unwind$?stbi__convert_8_to_16@@YAPEAGPEAEHHH@Z
$pdata$?stbi__vertical_flip@@YAXPEAXHHH@Z DD imagerel ?stbi__vertical_flip@@YAXPEAXHHH@Z
	DD	imagerel ?stbi__vertical_flip@@YAXPEAXHHH@Z+405
	DD	imagerel $unwind$?stbi__vertical_flip@@YAXPEAXHHH@Z
$pdata$?stbi__vertical_flip_slices@@YAXPEAXHHHH@Z DD imagerel ?stbi__vertical_flip_slices@@YAXPEAXHHHH@Z
	DD	imagerel ?stbi__vertical_flip_slices@@YAXPEAXHHHH@Z+133
	DD	imagerel $unwind$?stbi__vertical_flip_slices@@YAXPEAXHHHH@Z
$pdata$?stbi__load_and_postprocess_8bit@@YAPEAEPEAUstbi__context@@PEAH11H@Z DD imagerel ?stbi__load_and_postprocess_8bit@@YAPEAEPEAUstbi__context@@PEAH11H@Z
	DD	imagerel ?stbi__load_and_postprocess_8bit@@YAPEAEPEAUstbi__context@@PEAH11H@Z+437
	DD	imagerel $unwind$?stbi__load_and_postprocess_8bit@@YAPEAEPEAUstbi__context@@PEAH11H@Z
$pdata$?stbi__load_and_postprocess_16bit@@YAPEAGPEAUstbi__context@@PEAH11H@Z DD imagerel ?stbi__load_and_postprocess_16bit@@YAPEAGPEAUstbi__context@@PEAH11H@Z
	DD	imagerel ?stbi__load_and_postprocess_16bit@@YAPEAGPEAUstbi__context@@PEAH11H@Z+443
	DD	imagerel $unwind$?stbi__load_and_postprocess_16bit@@YAPEAGPEAUstbi__context@@PEAH11H@Z
$pdata$?stbi__float_postprocess@@YAXPEAMPEAH11H@Z DD imagerel ?stbi__float_postprocess@@YAXPEAMPEAH11H@Z
	DD	imagerel ?stbi__float_postprocess@@YAXPEAMPEAH11H@Z+194
	DD	imagerel $unwind$?stbi__float_postprocess@@YAXPEAMPEAH11H@Z
$pdata$?stbi__fopen@@YAPEAU_iobuf@@PEBD0@Z DD imagerel ?stbi__fopen@@YAPEAU_iobuf@@PEBD0@Z
	DD	imagerel ?stbi__fopen@@YAPEAU_iobuf@@PEBD0@Z+57
	DD	imagerel $unwind$?stbi__fopen@@YAPEAU_iobuf@@PEBD0@Z
$pdata$?stbi__loadf_main@@YAPEAMPEAUstbi__context@@PEAH11H@Z DD imagerel ?stbi__loadf_main@@YAPEAMPEAUstbi__context@@PEAH11H@Z
	DD	imagerel ?stbi__loadf_main@@YAPEAMPEAUstbi__context@@PEAH11H@Z+354
	DD	imagerel $unwind$?stbi__loadf_main@@YAPEAMPEAUstbi__context@@PEAH11H@Z
$pdata$?stbi__get8@@YAEPEAUstbi__context@@@Z DD imagerel ?stbi__get8@@YAEPEAUstbi__context@@@Z
	DD	imagerel ?stbi__get8@@YAEPEAUstbi__context@@@Z+169
	DD	imagerel $unwind$?stbi__get8@@YAEPEAUstbi__context@@@Z
$pdata$?stbi__at_eof@@YAHPEAUstbi__context@@@Z DD imagerel ?stbi__at_eof@@YAHPEAUstbi__context@@@Z
	DD	imagerel ?stbi__at_eof@@YAHPEAUstbi__context@@@Z+117
	DD	imagerel $unwind$?stbi__at_eof@@YAHPEAUstbi__context@@@Z
$pdata$?stbi__skip@@YAXPEAUstbi__context@@H@Z DD imagerel ?stbi__skip@@YAXPEAUstbi__context@@H@Z
	DD	imagerel ?stbi__skip@@YAXPEAUstbi__context@@H@Z+205
	DD	imagerel $unwind$?stbi__skip@@YAXPEAUstbi__context@@H@Z
$pdata$?stbi__getn@@YAHPEAUstbi__context@@PEAEH@Z DD imagerel ?stbi__getn@@YAHPEAUstbi__context@@PEAEH@Z
	DD	imagerel ?stbi__getn@@YAHPEAUstbi__context@@PEAEH@Z+343
	DD	imagerel $unwind$?stbi__getn@@YAHPEAUstbi__context@@PEAEH@Z
$pdata$?stbi__get16be@@YAHPEAUstbi__context@@@Z DD imagerel ?stbi__get16be@@YAHPEAUstbi__context@@@Z
	DD	imagerel ?stbi__get16be@@YAHPEAUstbi__context@@@Z+63
	DD	imagerel $unwind$?stbi__get16be@@YAHPEAUstbi__context@@@Z
$pdata$?stbi__get32be@@YAIPEAUstbi__context@@@Z DD imagerel ?stbi__get32be@@YAIPEAUstbi__context@@@Z
	DD	imagerel ?stbi__get32be@@YAIPEAUstbi__context@@@Z+57
	DD	imagerel $unwind$?stbi__get32be@@YAIPEAUstbi__context@@@Z
$pdata$?stbi__get16le@@YAHPEAUstbi__context@@@Z DD imagerel ?stbi__get16le@@YAHPEAUstbi__context@@@Z
	DD	imagerel ?stbi__get16le@@YAHPEAUstbi__context@@@Z+55
	DD	imagerel $unwind$?stbi__get16le@@YAHPEAUstbi__context@@@Z
$pdata$?stbi__get32le@@YAIPEAUstbi__context@@@Z DD imagerel ?stbi__get32le@@YAIPEAUstbi__context@@@Z
	DD	imagerel ?stbi__get32le@@YAIPEAUstbi__context@@@Z+57
	DD	imagerel $unwind$?stbi__get32le@@YAIPEAUstbi__context@@@Z
$pdata$?stbi__convert_format@@YAPEAEPEAEHHII@Z DD imagerel ?stbi__convert_format@@YAPEAEPEAEHHII@Z
	DD	imagerel ?stbi__convert_format@@YAPEAEPEAEHHII@Z+2632
	DD	imagerel $unwind$?stbi__convert_format@@YAPEAEPEAEHHII@Z
$pdata$?stbi__convert_format16@@YAPEAGPEAGHHII@Z DD imagerel ?stbi__convert_format16@@YAPEAGPEAGHHII@Z
	DD	imagerel ?stbi__convert_format16@@YAPEAGPEAGHHII@Z+2684
	DD	imagerel $unwind$?stbi__convert_format16@@YAPEAGPEAGHHII@Z
$pdata$?stbi__build_huffman@@YAHPEAUstbi__huffman@@PEAH@Z DD imagerel ?stbi__build_huffman@@YAHPEAUstbi__huffman@@PEAH@Z
	DD	imagerel ?stbi__build_huffman@@YAHPEAUstbi__huffman@@PEAH@Z+648
	DD	imagerel $unwind$?stbi__build_huffman@@YAHPEAUstbi__huffman@@PEAH@Z
$pdata$?stbi__build_fast_ac@@YAXPEAFPEAUstbi__huffman@@@Z DD imagerel ?stbi__build_fast_ac@@YAXPEAFPEAUstbi__huffman@@@Z
	DD	imagerel ?stbi__build_fast_ac@@YAXPEAFPEAUstbi__huffman@@@Z+367
	DD	imagerel $unwind$?stbi__build_fast_ac@@YAXPEAFPEAUstbi__huffman@@@Z
$pdata$?stbi__grow_buffer_unsafe@@YAXPEAUstbi__jpeg@@@Z DD imagerel ?stbi__grow_buffer_unsafe@@YAXPEAUstbi__jpeg@@@Z
	DD	imagerel ?stbi__grow_buffer_unsafe@@YAXPEAUstbi__jpeg@@@Z+264
	DD	imagerel $unwind$?stbi__grow_buffer_unsafe@@YAXPEAUstbi__jpeg@@@Z
$pdata$?stbi__jpeg_huff_decode@@YAHPEAUstbi__jpeg@@PEAUstbi__huffman@@@Z DD imagerel ?stbi__jpeg_huff_decode@@YAHPEAUstbi__jpeg@@PEAUstbi__huffman@@@Z
	DD	imagerel ?stbi__jpeg_huff_decode@@YAHPEAUstbi__jpeg@@PEAUstbi__huffman@@@Z+645
	DD	imagerel $unwind$?stbi__jpeg_huff_decode@@YAHPEAUstbi__jpeg@@PEAUstbi__huffman@@@Z
$pdata$?stbi__extend_receive@@YAHPEAUstbi__jpeg@@H@Z DD imagerel ?stbi__extend_receive@@YAHPEAUstbi__jpeg@@H@Z
	DD	imagerel ?stbi__extend_receive@@YAHPEAUstbi__jpeg@@H@Z+219
	DD	imagerel $unwind$?stbi__extend_receive@@YAHPEAUstbi__jpeg@@H@Z
$pdata$?stbi__jpeg_get_bits@@YAHPEAUstbi__jpeg@@H@Z DD imagerel ?stbi__jpeg_get_bits@@YAHPEAUstbi__jpeg@@H@Z
	DD	imagerel ?stbi__jpeg_get_bits@@YAHPEAUstbi__jpeg@@H@Z+174
	DD	imagerel $unwind$?stbi__jpeg_get_bits@@YAHPEAUstbi__jpeg@@H@Z
$pdata$?stbi__jpeg_get_bit@@YAHPEAUstbi__jpeg@@@Z DD imagerel ?stbi__jpeg_get_bit@@YAHPEAUstbi__jpeg@@@Z
	DD	imagerel ?stbi__jpeg_get_bit@@YAHPEAUstbi__jpeg@@@Z+110
	DD	imagerel $unwind$?stbi__jpeg_get_bit@@YAHPEAUstbi__jpeg@@@Z
$pdata$?stbi__jpeg_decode_block@@YAHPEAUstbi__jpeg@@QEAFPEAUstbi__huffman@@2PEAFHPEAG@Z DD imagerel ?stbi__jpeg_decode_block@@YAHPEAUstbi__jpeg@@QEAFPEAUstbi__huffman@@2PEAFHPEAG@Z
	DD	imagerel ?stbi__jpeg_decode_block@@YAHPEAUstbi__jpeg@@QEAFPEAUstbi__huffman@@2PEAFHPEAG@Z+738
	DD	imagerel $unwind$?stbi__jpeg_decode_block@@YAHPEAUstbi__jpeg@@QEAFPEAUstbi__huffman@@2PEAFHPEAG@Z
$pdata$?stbi__jpeg_decode_block_prog_dc@@YAHPEAUstbi__jpeg@@QEAFPEAUstbi__huffman@@H@Z DD imagerel ?stbi__jpeg_decode_block_prog_dc@@YAHPEAUstbi__jpeg@@QEAFPEAUstbi__huffman@@H@Z
	DD	imagerel ?stbi__jpeg_decode_block_prog_dc@@YAHPEAUstbi__jpeg@@QEAFPEAUstbi__huffman@@H@Z+403
	DD	imagerel $unwind$?stbi__jpeg_decode_block_prog_dc@@YAHPEAUstbi__jpeg@@QEAFPEAUstbi__huffman@@H@Z
$pdata$?stbi__jpeg_decode_block_prog_ac@@YAHPEAUstbi__jpeg@@QEAFPEAUstbi__huffman@@PEAF@Z DD imagerel ?stbi__jpeg_decode_block_prog_ac@@YAHPEAUstbi__jpeg@@QEAFPEAUstbi__huffman@@PEAF@Z
	DD	imagerel ?stbi__jpeg_decode_block_prog_ac@@YAHPEAUstbi__jpeg@@QEAFPEAUstbi__huffman@@PEAF@Z+1618
	DD	imagerel $unwind$?stbi__jpeg_decode_block_prog_ac@@YAHPEAUstbi__jpeg@@QEAFPEAUstbi__huffman@@PEAF@Z
$pdata$?stbi__idct_block@@YAXPEAEHQEAF@Z DD imagerel ?stbi__idct_block@@YAXPEAEHQEAF@Z
	DD	imagerel ?stbi__idct_block@@YAXPEAEHQEAF@Z+2715
	DD	imagerel $unwind$?stbi__idct_block@@YAXPEAEHQEAF@Z
$pdata$?stbi__idct_simd@@YAXPEAEHQEAF@Z DD imagerel ?stbi__idct_simd@@YAXPEAEHQEAF@Z
	DD	imagerel ?stbi__idct_simd@@YAXPEAEHQEAF@Z+11018
	DD	imagerel $unwind$?stbi__idct_simd@@YAXPEAEHQEAF@Z
$pdata$?stbi__get_marker@@YAEPEAUstbi__jpeg@@@Z DD imagerel ?stbi__get_marker@@YAEPEAUstbi__jpeg@@@Z
	DD	imagerel ?stbi__get_marker@@YAEPEAUstbi__jpeg@@@Z+137
	DD	imagerel $unwind$?stbi__get_marker@@YAEPEAUstbi__jpeg@@@Z
$pdata$?stbi__jpeg_reset@@YAXPEAUstbi__jpeg@@@Z DD imagerel ?stbi__jpeg_reset@@YAXPEAUstbi__jpeg@@@Z
	DD	imagerel ?stbi__jpeg_reset@@YAXPEAUstbi__jpeg@@@Z+237
	DD	imagerel $unwind$?stbi__jpeg_reset@@YAXPEAUstbi__jpeg@@@Z
$pdata$?stbi__parse_entropy_coded_data@@YAHPEAUstbi__jpeg@@@Z DD imagerel ?stbi__parse_entropy_coded_data@@YAHPEAUstbi__jpeg@@@Z
	DD	imagerel ?stbi__parse_entropy_coded_data@@YAHPEAUstbi__jpeg@@@Z+3156
	DD	imagerel $unwind$?stbi__parse_entropy_coded_data@@YAHPEAUstbi__jpeg@@@Z
$pdata$?stbi__jpeg_dequantize@@YAXPEAFPEAG@Z DD imagerel ?stbi__jpeg_dequantize@@YAXPEAFPEAG@Z
	DD	imagerel ?stbi__jpeg_dequantize@@YAXPEAFPEAG@Z+86
	DD	imagerel $unwind$?stbi__jpeg_dequantize@@YAXPEAFPEAG@Z
$pdata$?stbi__jpeg_finish@@YAXPEAUstbi__jpeg@@@Z DD imagerel ?stbi__jpeg_finish@@YAXPEAUstbi__jpeg@@@Z
	DD	imagerel ?stbi__jpeg_finish@@YAXPEAUstbi__jpeg@@@Z+457
	DD	imagerel $unwind$?stbi__jpeg_finish@@YAXPEAUstbi__jpeg@@@Z
$pdata$?stbi__process_marker@@YAHPEAUstbi__jpeg@@H@Z DD imagerel ?stbi__process_marker@@YAHPEAUstbi__jpeg@@H@Z
	DD	imagerel ?stbi__process_marker@@YAHPEAUstbi__jpeg@@H@Z+1716
	DD	imagerel $unwind$?stbi__process_marker@@YAHPEAUstbi__jpeg@@H@Z
$pdata$?stbi__process_scan_header@@YAHPEAUstbi__jpeg@@@Z DD imagerel ?stbi__process_scan_header@@YAHPEAUstbi__jpeg@@@Z
	DD	imagerel ?stbi__process_scan_header@@YAHPEAUstbi__jpeg@@@Z+812
	DD	imagerel $unwind$?stbi__process_scan_header@@YAHPEAUstbi__jpeg@@@Z
$pdata$?stbi__free_jpeg_components@@YAHPEAUstbi__jpeg@@HH@Z DD imagerel ?stbi__free_jpeg_components@@YAHPEAUstbi__jpeg@@HH@Z
	DD	imagerel ?stbi__free_jpeg_components@@YAHPEAUstbi__jpeg@@HH@Z+352
	DD	imagerel $unwind$?stbi__free_jpeg_components@@YAHPEAUstbi__jpeg@@HH@Z
$pdata$?stbi__process_frame_header@@YAHPEAUstbi__jpeg@@H@Z DD imagerel ?stbi__process_frame_header@@YAHPEAUstbi__jpeg@@H@Z
	DD	imagerel ?stbi__process_frame_header@@YAHPEAUstbi__jpeg@@H@Z+2318
	DD	imagerel $unwind$?stbi__process_frame_header@@YAHPEAUstbi__jpeg@@H@Z
$pdata$?stbi__decode_jpeg_header@@YAHPEAUstbi__jpeg@@H@Z DD imagerel ?stbi__decode_jpeg_header@@YAHPEAUstbi__jpeg@@H@Z
	DD	imagerel ?stbi__decode_jpeg_header@@YAHPEAUstbi__jpeg@@H@Z+345
	DD	imagerel $unwind$?stbi__decode_jpeg_header@@YAHPEAUstbi__jpeg@@H@Z
$pdata$?stbi__decode_jpeg_image@@YAHPEAUstbi__jpeg@@@Z DD imagerel ?stbi__decode_jpeg_image@@YAHPEAUstbi__jpeg@@@Z
	DD	imagerel ?stbi__decode_jpeg_image@@YAHPEAUstbi__jpeg@@@Z+487
	DD	imagerel $unwind$?stbi__decode_jpeg_image@@YAHPEAUstbi__jpeg@@@Z
$pdata$?stbi__resample_row_v_2@@YAPEAEPEAE00HH@Z DD imagerel ?stbi__resample_row_v_2@@YAPEAEPEAE00HH@Z
	DD	imagerel ?stbi__resample_row_v_2@@YAPEAEPEAE00HH@Z+110
	DD	imagerel $unwind$?stbi__resample_row_v_2@@YAPEAEPEAE00HH@Z
$pdata$?stbi__resample_row_h_2@@YAPEAEPEAE00HH@Z DD imagerel ?stbi__resample_row_h_2@@YAPEAEPEAE00HH@Z
	DD	imagerel ?stbi__resample_row_h_2@@YAPEAEPEAE00HH@Z+474
	DD	imagerel $unwind$?stbi__resample_row_h_2@@YAPEAEPEAE00HH@Z
$pdata$?stbi__resample_row_hv_2@@YAPEAEPEAE00HH@Z DD imagerel ?stbi__resample_row_hv_2@@YAPEAEPEAE00HH@Z
	DD	imagerel ?stbi__resample_row_hv_2@@YAPEAEPEAE00HH@Z+383
	DD	imagerel $unwind$?stbi__resample_row_hv_2@@YAPEAEPEAE00HH@Z
$pdata$?stbi__resample_row_hv_2_simd@@YAPEAEPEAE00HH@Z DD imagerel ?stbi__resample_row_hv_2_simd@@YAPEAEPEAE00HH@Z
	DD	imagerel ?stbi__resample_row_hv_2_simd@@YAPEAEPEAE00HH@Z+1637
	DD	imagerel $unwind$?stbi__resample_row_hv_2_simd@@YAPEAEPEAE00HH@Z
$pdata$?stbi__resample_row_generic@@YAPEAEPEAE00HH@Z DD imagerel ?stbi__resample_row_generic@@YAPEAEPEAE00HH@Z
	DD	imagerel ?stbi__resample_row_generic@@YAPEAEPEAE00HH@Z+131
	DD	imagerel $unwind$?stbi__resample_row_generic@@YAPEAEPEAE00HH@Z
$pdata$?stbi__YCbCr_to_RGB_row@@YAXPEAEPEBE11HH@Z DD imagerel ?stbi__YCbCr_to_RGB_row@@YAXPEAEPEBE11HH@Z
	DD	imagerel ?stbi__YCbCr_to_RGB_row@@YAXPEAEPEBE11HH@Z+451
	DD	imagerel $unwind$?stbi__YCbCr_to_RGB_row@@YAXPEAEPEBE11HH@Z
$pdata$?stbi__YCbCr_to_RGB_simd@@YAXPEAEPEBE11HH@Z DD imagerel ?stbi__YCbCr_to_RGB_simd@@YAXPEAEPEBE11HH@Z
	DD	imagerel ?stbi__YCbCr_to_RGB_simd@@YAXPEAEPEBE11HH@Z+1986
	DD	imagerel $unwind$?stbi__YCbCr_to_RGB_simd@@YAXPEAEPEBE11HH@Z
$pdata$?stbi__setup_jpeg@@YAXPEAUstbi__jpeg@@@Z DD imagerel ?stbi__setup_jpeg@@YAXPEAUstbi__jpeg@@@Z
	DD	imagerel ?stbi__setup_jpeg@@YAXPEAUstbi__jpeg@@@Z+137
	DD	imagerel $unwind$?stbi__setup_jpeg@@YAXPEAUstbi__jpeg@@@Z
$pdata$?stbi__cleanup_jpeg@@YAXPEAUstbi__jpeg@@@Z DD imagerel ?stbi__cleanup_jpeg@@YAXPEAUstbi__jpeg@@@Z
	DD	imagerel ?stbi__cleanup_jpeg@@YAXPEAUstbi__jpeg@@@Z+38
	DD	imagerel $unwind$?stbi__cleanup_jpeg@@YAXPEAUstbi__jpeg@@@Z
$pdata$?stbi__blinn_8x8@@YAEEE@Z DD imagerel ?stbi__blinn_8x8@@YAEEE@Z
	DD	imagerel ?stbi__blinn_8x8@@YAEEE@Z+54
	DD	imagerel $unwind$?stbi__blinn_8x8@@YAEEE@Z
$pdata$?load_jpeg_image@@YAPEAEPEAUstbi__jpeg@@PEAH11H@Z DD imagerel ?load_jpeg_image@@YAPEAEPEAUstbi__jpeg@@PEAH11H@Z
	DD	imagerel ?load_jpeg_image@@YAPEAEPEAUstbi__jpeg@@PEAH11H@Z+4514
	DD	imagerel $unwind$?load_jpeg_image@@YAPEAEPEAUstbi__jpeg@@PEAH11H@Z
$pdata$?stbi__jpeg_info_raw@@YAHPEAUstbi__jpeg@@PEAH11@Z DD imagerel ?stbi__jpeg_info_raw@@YAHPEAUstbi__jpeg@@PEAH11@Z
	DD	imagerel ?stbi__jpeg_info_raw@@YAHPEAUstbi__jpeg@@PEAH11@Z+172
	DD	imagerel $unwind$?stbi__jpeg_info_raw@@YAHPEAUstbi__jpeg@@PEAH11@Z
$pdata$?stbi__bit_reverse@@YAHHH@Z DD imagerel ?stbi__bit_reverse@@YAHHH@Z
	DD	imagerel ?stbi__bit_reverse@@YAHHH@Z+55
	DD	imagerel $unwind$?stbi__bit_reverse@@YAHHH@Z
$pdata$?stbi__zbuild_huffman@@YAHPEAUstbi__zhuffman@@PEBEH@Z DD imagerel ?stbi__zbuild_huffman@@YAHPEAUstbi__zhuffman@@PEBEH@Z
	DD	imagerel ?stbi__zbuild_huffman@@YAHPEAUstbi__zhuffman@@PEBEH@Z+898
	DD	imagerel $unwind$?stbi__zbuild_huffman@@YAHPEAUstbi__zhuffman@@PEBEH@Z
$pdata$?stbi__zeof@@YAHPEAUstbi__zbuf@@@Z DD imagerel ?stbi__zeof@@YAHPEAUstbi__zbuf@@@Z
	DD	imagerel ?stbi__zeof@@YAHPEAUstbi__zbuf@@@Z+52
	DD	imagerel $unwind$?stbi__zeof@@YAHPEAUstbi__zbuf@@@Z
$pdata$?stbi__zget8@@YAEPEAUstbi__zbuf@@@Z DD imagerel ?stbi__zget8@@YAEPEAUstbi__zbuf@@@Z
	DD	imagerel ?stbi__zget8@@YAEPEAUstbi__zbuf@@@Z+77
	DD	imagerel $unwind$?stbi__zget8@@YAEPEAUstbi__zbuf@@@Z
$pdata$?stbi__fill_bits@@YAXPEAUstbi__zbuf@@@Z DD imagerel ?stbi__fill_bits@@YAXPEAUstbi__zbuf@@@Z
	DD	imagerel ?stbi__fill_bits@@YAXPEAUstbi__zbuf@@@Z+142
	DD	imagerel $unwind$?stbi__fill_bits@@YAXPEAUstbi__zbuf@@@Z
$pdata$?stbi__zreceive@@YAIPEAUstbi__zbuf@@H@Z DD imagerel ?stbi__zreceive@@YAIPEAUstbi__zbuf@@H@Z
	DD	imagerel ?stbi__zreceive@@YAIPEAUstbi__zbuf@@H@Z+143
	DD	imagerel $unwind$?stbi__zreceive@@YAIPEAUstbi__zbuf@@H@Z
$pdata$?stbi__zhuffman_decode_slowpath@@YAHPEAUstbi__zbuf@@PEAUstbi__zhuffman@@@Z DD imagerel ?stbi__zhuffman_decode_slowpath@@YAHPEAUstbi__zbuf@@PEAUstbi__zhuffman@@@Z
	DD	imagerel ?stbi__zhuffman_decode_slowpath@@YAHPEAUstbi__zbuf@@PEAUstbi__zhuffman@@@Z+290
	DD	imagerel $unwind$?stbi__zhuffman_decode_slowpath@@YAHPEAUstbi__zbuf@@PEAUstbi__zhuffman@@@Z
$pdata$?stbi__zhuffman_decode@@YAHPEAUstbi__zbuf@@PEAUstbi__zhuffman@@@Z DD imagerel ?stbi__zhuffman_decode@@YAHPEAUstbi__zbuf@@PEAUstbi__zhuffman@@@Z
	DD	imagerel ?stbi__zhuffman_decode@@YAHPEAUstbi__zbuf@@PEAUstbi__zhuffman@@@Z+193
	DD	imagerel $unwind$?stbi__zhuffman_decode@@YAHPEAUstbi__zbuf@@PEAUstbi__zhuffman@@@Z
$pdata$?stbi__zexpand@@YAHPEAUstbi__zbuf@@PEADH@Z DD imagerel ?stbi__zexpand@@YAHPEAUstbi__zbuf@@PEADH@Z
	DD	imagerel ?stbi__zexpand@@YAHPEAUstbi__zbuf@@PEADH@Z+324
	DD	imagerel $unwind$?stbi__zexpand@@YAHPEAUstbi__zbuf@@PEADH@Z
$pdata$?stbi__parse_huffman_block@@YAHPEAUstbi__zbuf@@@Z DD imagerel ?stbi__parse_huffman_block@@YAHPEAUstbi__zbuf@@@Z
	DD	imagerel ?stbi__parse_huffman_block@@YAHPEAUstbi__zbuf@@@Z+707
	DD	imagerel $unwind$?stbi__parse_huffman_block@@YAHPEAUstbi__zbuf@@@Z
$pdata$?stbi__compute_huffman_codes@@YAHPEAUstbi__zbuf@@@Z DD imagerel ?stbi__compute_huffman_codes@@YAHPEAUstbi__zbuf@@@Z
	DD	imagerel ?stbi__compute_huffman_codes@@YAHPEAUstbi__zbuf@@@Z+786
	DD	imagerel $unwind$?stbi__compute_huffman_codes@@YAHPEAUstbi__zbuf@@@Z
$pdata$?stbi__parse_uncompressed_block@@YAHPEAUstbi__zbuf@@@Z DD imagerel ?stbi__parse_uncompressed_block@@YAHPEAUstbi__zbuf@@@Z
	DD	imagerel ?stbi__parse_uncompressed_block@@YAHPEAUstbi__zbuf@@@Z+499
	DD	imagerel $unwind$?stbi__parse_uncompressed_block@@YAHPEAUstbi__zbuf@@@Z
$pdata$?stbi__parse_zlib_header@@YAHPEAUstbi__zbuf@@@Z DD imagerel ?stbi__parse_zlib_header@@YAHPEAUstbi__zbuf@@@Z
	DD	imagerel ?stbi__parse_zlib_header@@YAHPEAUstbi__zbuf@@@Z+178
	DD	imagerel $unwind$?stbi__parse_zlib_header@@YAHPEAUstbi__zbuf@@@Z
$pdata$?stbi__parse_zlib@@YAHPEAUstbi__zbuf@@H@Z DD imagerel ?stbi__parse_zlib@@YAHPEAUstbi__zbuf@@H@Z
	DD	imagerel ?stbi__parse_zlib@@YAHPEAUstbi__zbuf@@H@Z+296
	DD	imagerel $unwind$?stbi__parse_zlib@@YAHPEAUstbi__zbuf@@H@Z
$pdata$?stbi__do_zlib@@YAHPEAUstbi__zbuf@@PEADHHH@Z DD imagerel ?stbi__do_zlib@@YAHPEAUstbi__zbuf@@PEADHHH@Z
	DD	imagerel ?stbi__do_zlib@@YAHPEAUstbi__zbuf@@PEADHHH@Z+108
	DD	imagerel $unwind$?stbi__do_zlib@@YAHPEAUstbi__zbuf@@PEADHHH@Z
$pdata$?stbi__get_chunk_header@@YA?AUstbi__pngchunk@@PEAUstbi__context@@@Z DD imagerel ?stbi__get_chunk_header@@YA?AUstbi__pngchunk@@PEAUstbi__context@@@Z
	DD	imagerel ?stbi__get_chunk_header@@YA?AUstbi__pngchunk@@PEAUstbi__context@@@Z+47
	DD	imagerel $unwind$?stbi__get_chunk_header@@YA?AUstbi__pngchunk@@PEAUstbi__context@@@Z
$pdata$?stbi__check_png_header@@YAHPEAUstbi__context@@@Z DD imagerel ?stbi__check_png_header@@YAHPEAUstbi__context@@@Z
	DD	imagerel ?stbi__check_png_header@@YAHPEAUstbi__context@@@Z+95
	DD	imagerel $unwind$?stbi__check_png_header@@YAHPEAUstbi__context@@@Z
$pdata$?stbi__paeth@@YAHHHH@Z DD imagerel ?stbi__paeth@@YAHHHH@Z
	DD	imagerel ?stbi__paeth@@YAHHHH@Z+153
	DD	imagerel $unwind$?stbi__paeth@@YAHHHH@Z
$pdata$?stbi__create_png_image_raw@@YAHPEAUstbi__png@@PEAEIHIIHH@Z DD imagerel ?stbi__create_png_image_raw@@YAHPEAUstbi__png@@PEAEIHIIHH@Z
	DD	imagerel ?stbi__create_png_image_raw@@YAHPEAUstbi__png@@PEAEIHIIHH@Z+6196
	DD	imagerel $unwind$?stbi__create_png_image_raw@@YAHPEAUstbi__png@@PEAEIHIIHH@Z
$pdata$?stbi__create_png_image@@YAHPEAUstbi__png@@PEAEIHHHH@Z DD imagerel ?stbi__create_png_image@@YAHPEAUstbi__png@@PEAEIHHHH@Z
	DD	imagerel ?stbi__create_png_image@@YAHPEAUstbi__png@@PEAEIHHHH@Z+1260
	DD	imagerel $unwind$?stbi__create_png_image@@YAHPEAUstbi__png@@PEAEIHHHH@Z
$pdata$?stbi__compute_transparency@@YAHPEAUstbi__png@@QEAEH@Z DD imagerel ?stbi__compute_transparency@@YAHPEAUstbi__png@@QEAEH@Z
	DD	imagerel ?stbi__compute_transparency@@YAHPEAUstbi__png@@QEAEH@Z+422
	DD	imagerel $unwind$?stbi__compute_transparency@@YAHPEAUstbi__png@@QEAEH@Z
$pdata$?stbi__compute_transparency16@@YAHPEAUstbi__png@@QEAGH@Z DD imagerel ?stbi__compute_transparency16@@YAHPEAUstbi__png@@QEAGH@Z
	DD	imagerel ?stbi__compute_transparency16@@YAHPEAUstbi__png@@QEAGH@Z+429
	DD	imagerel $unwind$?stbi__compute_transparency16@@YAHPEAUstbi__png@@QEAGH@Z
$pdata$?stbi__expand_png_palette@@YAHPEAUstbi__png@@PEAEHH@Z DD imagerel ?stbi__expand_png_palette@@YAHPEAUstbi__png@@PEAEHH@Z
	DD	imagerel ?stbi__expand_png_palette@@YAHPEAUstbi__png@@PEAEHH@Z+562
	DD	imagerel $unwind$?stbi__expand_png_palette@@YAHPEAUstbi__png@@PEAEHH@Z
$pdata$?stbi__de_iphone@@YAXPEAUstbi__png@@@Z DD imagerel ?stbi__de_iphone@@YAXPEAUstbi__png@@@Z
	DD	imagerel ?stbi__de_iphone@@YAXPEAUstbi__png@@@Z+778
	DD	imagerel $unwind$?stbi__de_iphone@@YAXPEAUstbi__png@@@Z
$pdata$?stbi__parse_png_file@@YAHPEAUstbi__png@@HH@Z DD imagerel ?stbi__parse_png_file@@YAHPEAUstbi__png@@HH@Z
	DD	imagerel ?stbi__parse_png_file@@YAHPEAUstbi__png@@HH@Z+3426
	DD	imagerel $unwind$?stbi__parse_png_file@@YAHPEAUstbi__png@@HH@Z
$pdata$?stbi__do_png@@YAPEAXPEAUstbi__png@@PEAH11HPEAUstbi__result_info@@@Z DD imagerel ?stbi__do_png@@YAPEAXPEAUstbi__png@@PEAH11HPEAUstbi__result_info@@@Z
	DD	imagerel ?stbi__do_png@@YAPEAXPEAUstbi__png@@PEAH11HPEAUstbi__result_info@@@Z+578
	DD	imagerel $unwind$?stbi__do_png@@YAPEAXPEAUstbi__png@@PEAH11HPEAUstbi__result_info@@@Z
$pdata$?stbi__png_info_raw@@YAHPEAUstbi__png@@PEAH11@Z DD imagerel ?stbi__png_info_raw@@YAHPEAUstbi__png@@PEAH11@Z
	DD	imagerel ?stbi__png_info_raw@@YAHPEAUstbi__png@@PEAH11@Z+150
	DD	imagerel $unwind$?stbi__png_info_raw@@YAHPEAUstbi__png@@PEAH11@Z
$pdata$?stbi__bmp_test_raw@@YAHPEAUstbi__context@@@Z DD imagerel ?stbi__bmp_test_raw@@YAHPEAUstbi__context@@@Z
	DD	imagerel ?stbi__bmp_test_raw@@YAHPEAUstbi__context@@@Z+180
	DD	imagerel $unwind$?stbi__bmp_test_raw@@YAHPEAUstbi__context@@@Z
$pdata$?stbi__high_bit@@YAHI@Z DD imagerel ?stbi__high_bit@@YAHI@Z
	DD	imagerel ?stbi__high_bit@@YAHI@Z+169
	DD	imagerel $unwind$?stbi__high_bit@@YAHI@Z
$pdata$?stbi__bmp_parse_header@@YAPEAXPEAUstbi__context@@PEAUstbi__bmp_data@@@Z DD imagerel ?stbi__bmp_parse_header@@YAPEAXPEAUstbi__context@@PEAUstbi__bmp_data@@@Z
	DD	imagerel ?stbi__bmp_parse_header@@YAPEAXPEAUstbi__context@@PEAUstbi__bmp_data@@@Z+1359
	DD	imagerel $unwind$?stbi__bmp_parse_header@@YAPEAXPEAUstbi__context@@PEAUstbi__bmp_data@@@Z
$pdata$?stbi__tga_get_comp@@YAHHHPEAH@Z DD imagerel ?stbi__tga_get_comp@@YAHHHPEAH@Z
	DD	imagerel ?stbi__tga_get_comp@@YAHHHPEAH@Z+144
	DD	imagerel $unwind$?stbi__tga_get_comp@@YAHHHPEAH@Z
$pdata$?stbi__tga_read_rgb16@@YAXPEAUstbi__context@@PEAE@Z DD imagerel ?stbi__tga_read_rgb16@@YAXPEAUstbi__context@@PEAE@Z
	DD	imagerel ?stbi__tga_read_rgb16@@YAXPEAUstbi__context@@PEAE@Z+197
	DD	imagerel $unwind$?stbi__tga_read_rgb16@@YAXPEAUstbi__context@@PEAE@Z
$pdata$?stbi__psd_decode_rle@@YAHPEAUstbi__context@@PEAEH@Z DD imagerel ?stbi__psd_decode_rle@@YAHPEAUstbi__context@@PEAEH@Z
	DD	imagerel ?stbi__psd_decode_rle@@YAHPEAUstbi__context@@PEAEH@Z+318
	DD	imagerel $unwind$?stbi__psd_decode_rle@@YAHPEAUstbi__context@@PEAEH@Z
$pdata$?stbi__pic_is4@@YAHPEAUstbi__context@@PEBD@Z DD imagerel ?stbi__pic_is4@@YAHPEAUstbi__context@@PEBD@Z
	DD	imagerel ?stbi__pic_is4@@YAHPEAUstbi__context@@PEBD@Z+88
	DD	imagerel $unwind$?stbi__pic_is4@@YAHPEAUstbi__context@@PEBD@Z
$pdata$?stbi__pic_test_core@@YAHPEAUstbi__context@@@Z DD imagerel ?stbi__pic_test_core@@YAHPEAUstbi__context@@@Z
	DD	imagerel ?stbi__pic_test_core@@YAHPEAUstbi__context@@@Z+108
	DD	imagerel $unwind$?stbi__pic_test_core@@YAHPEAUstbi__context@@@Z
$pdata$?stbi__readval@@YAPEAEPEAUstbi__context@@HPEAE@Z DD imagerel ?stbi__readval@@YAPEAEPEAUstbi__context@@HPEAE@Z
	DD	imagerel ?stbi__readval@@YAPEAEPEAUstbi__context@@HPEAE@Z+169
	DD	imagerel $unwind$?stbi__readval@@YAPEAEPEAUstbi__context@@HPEAE@Z
$pdata$?stbi__copyval@@YAXHPEAEPEBE@Z DD imagerel ?stbi__copyval@@YAXHPEAEPEBE@Z
	DD	imagerel ?stbi__copyval@@YAXHPEAEPEBE@Z+108
	DD	imagerel $unwind$?stbi__copyval@@YAXHPEAEPEBE@Z
$pdata$?stbi__pic_load_core@@YAPEAEPEAUstbi__context@@HHPEAHPEAE@Z DD imagerel ?stbi__pic_load_core@@YAPEAEPEAUstbi__context@@HHPEAHPEAE@Z
	DD	imagerel ?stbi__pic_load_core@@YAPEAEPEAUstbi__context@@HHPEAHPEAE@Z+1593
	DD	imagerel $unwind$?stbi__pic_load_core@@YAPEAEPEAUstbi__context@@HHPEAHPEAE@Z
$pdata$?stbi__gif_test_raw@@YAHPEAUstbi__context@@@Z DD imagerel ?stbi__gif_test_raw@@YAHPEAUstbi__context@@@Z
	DD	imagerel ?stbi__gif_test_raw@@YAHPEAUstbi__context@@@Z+152
	DD	imagerel $unwind$?stbi__gif_test_raw@@YAHPEAUstbi__context@@@Z
$pdata$?stbi__gif_parse_colortable@@YAXPEAUstbi__context@@QEAY03EHH@Z DD imagerel ?stbi__gif_parse_colortable@@YAXPEAUstbi__context@@QEAY03EHH@Z
	DD	imagerel ?stbi__gif_parse_colortable@@YAXPEAUstbi__context@@QEAY03EHH@Z+235
	DD	imagerel $unwind$?stbi__gif_parse_colortable@@YAXPEAUstbi__context@@QEAY03EHH@Z
$pdata$?stbi__gif_header@@YAHPEAUstbi__context@@PEAUstbi__gif@@PEAHH@Z DD imagerel ?stbi__gif_header@@YAHPEAUstbi__context@@PEAUstbi__gif@@PEAHH@Z
	DD	imagerel ?stbi__gif_header@@YAHPEAUstbi__context@@PEAUstbi__gif@@PEAHH@Z+524
	DD	imagerel $unwind$?stbi__gif_header@@YAHPEAUstbi__context@@PEAUstbi__gif@@PEAHH@Z
$pdata$?stbi__gif_info_raw@@YAHPEAUstbi__context@@PEAH11@Z DD imagerel ?stbi__gif_info_raw@@YAHPEAUstbi__context@@PEAH11@Z
	DD	imagerel ?stbi__gif_info_raw@@YAHPEAUstbi__context@@PEAH11@Z+180
	DD	imagerel $unwind$?stbi__gif_info_raw@@YAHPEAUstbi__context@@PEAH11@Z
$pdata$?stbi__out_gif_code@@YAXPEAUstbi__gif@@G@Z DD imagerel ?stbi__out_gif_code@@YAXPEAUstbi__gif@@G@Z
	DD	imagerel ?stbi__out_gif_code@@YAXPEAUstbi__gif@@G@Z+662
	DD	imagerel $unwind$?stbi__out_gif_code@@YAXPEAUstbi__gif@@G@Z
$pdata$?stbi__process_gif_raster@@YAPEAEPEAUstbi__context@@PEAUstbi__gif@@@Z DD imagerel ?stbi__process_gif_raster@@YAPEAEPEAUstbi__context@@PEAUstbi__gif@@@Z
	DD	imagerel ?stbi__process_gif_raster@@YAPEAEPEAUstbi__context@@PEAUstbi__gif@@@Z+1097
	DD	imagerel $unwind$?stbi__process_gif_raster@@YAPEAEPEAUstbi__context@@PEAUstbi__gif@@@Z
$pdata$?stbi__gif_load_next@@YAPEAEPEAUstbi__context@@PEAUstbi__gif@@PEAHHPEAE@Z DD imagerel ?stbi__gif_load_next@@YAPEAEPEAUstbi__context@@PEAUstbi__gif@@PEAHHPEAE@Z
	DD	imagerel ?stbi__gif_load_next@@YAPEAEPEAUstbi__context@@PEAUstbi__gif@@PEAHHPEAE@Z+2506
	DD	imagerel $unwind$?stbi__gif_load_next@@YAPEAEPEAUstbi__context@@PEAUstbi__gif@@PEAHHPEAE@Z
$pdata$?stbi__load_gif_main_outofmem@@YAPEAXPEAUstbi__gif@@PEAEPEAPEAH@Z DD imagerel ?stbi__load_gif_main_outofmem@@YAPEAXPEAUstbi__gif@@PEAEPEAPEAH@Z
	DD	imagerel ?stbi__load_gif_main_outofmem@@YAPEAXPEAUstbi__gif@@PEAEPEAPEAH@Z+155
	DD	imagerel $unwind$?stbi__load_gif_main_outofmem@@YAPEAXPEAUstbi__gif@@PEAEPEAPEAH@Z
$pdata$?stbi__hdr_test_core@@YAHPEAUstbi__context@@PEBD@Z DD imagerel ?stbi__hdr_test_core@@YAHPEAUstbi__context@@PEBD@Z
	DD	imagerel ?stbi__hdr_test_core@@YAHPEAUstbi__context@@PEBD@Z+109
	DD	imagerel $unwind$?stbi__hdr_test_core@@YAHPEAUstbi__context@@PEBD@Z
$pdata$?stbi__hdr_gettoken@@YAPEADPEAUstbi__context@@PEAD@Z DD imagerel ?stbi__hdr_gettoken@@YAPEADPEAUstbi__context@@PEAD@Z
	DD	imagerel ?stbi__hdr_gettoken@@YAPEADPEAUstbi__context@@PEAD@Z+179
	DD	imagerel $unwind$?stbi__hdr_gettoken@@YAPEADPEAUstbi__context@@PEAD@Z
$pdata$?stbi__hdr_convert@@YAXPEAMPEAEH@Z DD imagerel ?stbi__hdr_convert@@YAXPEAMPEAEH@Z
	DD	imagerel ?stbi__hdr_convert@@YAXPEAMPEAEH@Z+608
	DD	imagerel $unwind$?stbi__hdr_convert@@YAXPEAMPEAEH@Z
$pdata$?stbi__pnm_isspace@@YAHD@Z DD imagerel ?stbi__pnm_isspace@@YAHD@Z
	DD	imagerel ?stbi__pnm_isspace@@YAHD@Z+92
	DD	imagerel $unwind$?stbi__pnm_isspace@@YAHD@Z
$pdata$?stbi__pnm_skip_whitespace@@YAXPEAUstbi__context@@PEAD@Z DD imagerel ?stbi__pnm_skip_whitespace@@YAXPEAUstbi__context@@PEAD@Z
	DD	imagerel ?stbi__pnm_skip_whitespace@@YAXPEAUstbi__context@@PEAD@Z+162
	DD	imagerel $unwind$?stbi__pnm_skip_whitespace@@YAXPEAUstbi__context@@PEAD@Z
$pdata$?stbi__pnm_isdigit@@YAHD@Z DD imagerel ?stbi__pnm_isdigit@@YAHD@Z
	DD	imagerel ?stbi__pnm_isdigit@@YAHD@Z+52
	DD	imagerel $unwind$?stbi__pnm_isdigit@@YAHD@Z
$pdata$?stbi__pnm_getinteger@@YAHPEAUstbi__context@@PEAD@Z DD imagerel ?stbi__pnm_getinteger@@YAHPEAUstbi__context@@PEAD@Z
	DD	imagerel ?stbi__pnm_getinteger@@YAHPEAUstbi__context@@PEAD@Z+102
	DD	imagerel $unwind$?stbi__pnm_getinteger@@YAHPEAUstbi__context@@PEAD@Z
$pdata$?stbi__info_main@@YAHPEAUstbi__context@@PEAH11@Z DD imagerel ?stbi__info_main@@YAHPEAUstbi__context@@PEAH11@Z
	DD	imagerel ?stbi__info_main@@YAHPEAUstbi__context@@PEAH11@Z+380
	DD	imagerel $unwind$?stbi__info_main@@YAHPEAUstbi__context@@PEAH11@Z
$pdata$?stbi__is_16_main@@YAHPEAUstbi__context@@@Z DD imagerel ?stbi__is_16_main@@YAHPEAUstbi__context@@@Z
	DD	imagerel ?stbi__is_16_main@@YAHPEAUstbi__context@@@Z+79
	DD	imagerel $unwind$?stbi__is_16_main@@YAHPEAUstbi__context@@@Z
$pdata$?stbtt__buf_get8@@YAEPEAUstbtt__buf@@@Z DD imagerel ?stbtt__buf_get8@@YAEPEAUstbtt__buf@@@Z
	DD	imagerel ?stbtt__buf_get8@@YAEPEAUstbtt__buf@@@Z+82
	DD	imagerel $unwind$?stbtt__buf_get8@@YAEPEAUstbtt__buf@@@Z
$pdata$?stbtt__buf_seek@@YAXPEAUstbtt__buf@@H@Z DD imagerel ?stbtt__buf_seek@@YAXPEAUstbtt__buf@@H@Z
	DD	imagerel ?stbtt__buf_seek@@YAXPEAUstbtt__buf@@H@Z+121
	DD	imagerel $unwind$?stbtt__buf_seek@@YAXPEAUstbtt__buf@@H@Z
$pdata$?stbtt__buf_skip@@YAXPEAUstbtt__buf@@H@Z DD imagerel ?stbtt__buf_skip@@YAXPEAUstbtt__buf@@H@Z
	DD	imagerel ?stbtt__buf_skip@@YAXPEAUstbtt__buf@@H@Z+42
	DD	imagerel $unwind$?stbtt__buf_skip@@YAXPEAUstbtt__buf@@H@Z
$pdata$?stbtt__buf_get@@YAIPEAUstbtt__buf@@H@Z DD imagerel ?stbtt__buf_get@@YAIPEAUstbtt__buf@@H@Z
	DD	imagerel ?stbtt__buf_get@@YAIPEAUstbtt__buf@@H@Z+139
	DD	imagerel $unwind$?stbtt__buf_get@@YAIPEAUstbtt__buf@@H@Z
$pdata$?stbtt__new_buf@@YA?AUstbtt__buf@@PEBX_K@Z DD imagerel ?stbtt__new_buf@@YA?AUstbtt__buf@@PEBX_K@Z
	DD	imagerel ?stbtt__new_buf@@YA?AUstbtt__buf@@PEBX_K@Z+117
	DD	imagerel $unwind$?stbtt__new_buf@@YA?AUstbtt__buf@@PEBX_K@Z
$pdata$?stbtt__buf_range@@YA?AUstbtt__buf@@PEBU1@HH@Z DD imagerel ?stbtt__buf_range@@YA?AUstbtt__buf@@PEBU1@HH@Z
	DD	imagerel ?stbtt__buf_range@@YA?AUstbtt__buf@@PEBU1@HH@Z+236
	DD	imagerel $unwind$?stbtt__buf_range@@YA?AUstbtt__buf@@PEBU1@HH@Z
$pdata$?stbtt__cff_get_index@@YA?AUstbtt__buf@@PEAU1@@Z DD imagerel ?stbtt__cff_get_index@@YA?AUstbtt__buf@@PEAU1@@Z
	DD	imagerel ?stbtt__cff_get_index@@YA?AUstbtt__buf@@PEAU1@@Z+248
	DD	imagerel $unwind$?stbtt__cff_get_index@@YA?AUstbtt__buf@@PEAU1@@Z
$pdata$?stbtt__cff_int@@YAIPEAUstbtt__buf@@@Z DD imagerel ?stbtt__cff_int@@YAIPEAUstbtt__buf@@@Z
	DD	imagerel ?stbtt__cff_int@@YAIPEAUstbtt__buf@@@Z+288
	DD	imagerel $unwind$?stbtt__cff_int@@YAIPEAUstbtt__buf@@@Z
$pdata$?stbtt__cff_skip_operand@@YAXPEAUstbtt__buf@@@Z DD imagerel ?stbtt__cff_skip_operand@@YAXPEAUstbtt__buf@@@Z
	DD	imagerel ?stbtt__cff_skip_operand@@YAXPEAUstbtt__buf@@@Z+162
	DD	imagerel $unwind$?stbtt__cff_skip_operand@@YAXPEAUstbtt__buf@@@Z
$pdata$?stbtt__dict_get@@YA?AUstbtt__buf@@PEAU1@H@Z DD imagerel ?stbtt__dict_get@@YA?AUstbtt__buf@@PEAU1@H@Z
	DD	imagerel ?stbtt__dict_get@@YA?AUstbtt__buf@@PEAU1@H@Z+368
	DD	imagerel $unwind$?stbtt__dict_get@@YA?AUstbtt__buf@@PEAU1@H@Z
$pdata$?stbtt__dict_get_ints@@YAXPEAUstbtt__buf@@HHPEAI@Z DD imagerel ?stbtt__dict_get_ints@@YAXPEAUstbtt__buf@@HHPEAI@Z
	DD	imagerel ?stbtt__dict_get_ints@@YAXPEAUstbtt__buf@@HHPEAI@Z+170
	DD	imagerel $unwind$?stbtt__dict_get_ints@@YAXPEAUstbtt__buf@@HHPEAI@Z
$pdata$?stbtt__cff_index_count@@YAHPEAUstbtt__buf@@@Z DD imagerel ?stbtt__cff_index_count@@YAHPEAUstbtt__buf@@@Z
	DD	imagerel ?stbtt__cff_index_count@@YAHPEAUstbtt__buf@@@Z+41
	DD	imagerel $unwind$?stbtt__cff_index_count@@YAHPEAUstbtt__buf@@@Z
$pdata$?stbtt__cff_index_get@@YA?AUstbtt__buf@@U1@H@Z DD imagerel ?stbtt__cff_index_get@@YA?AUstbtt__buf@@U1@H@Z
	DD	imagerel ?stbtt__cff_index_get@@YA?AUstbtt__buf@@U1@H@Z+322
	DD	imagerel $unwind$?stbtt__cff_index_get@@YA?AUstbtt__buf@@U1@H@Z
$pdata$?stbtt__find_table@@YAIPEAEIPEBD@Z DD imagerel ?stbtt__find_table@@YAIPEAEIPEBD@Z
	DD	imagerel ?stbtt__find_table@@YAIPEAEIPEBD@Z+349
	DD	imagerel $unwind$?stbtt__find_table@@YAIPEAEIPEBD@Z
$pdata$?stbtt_GetFontOffsetForIndex_internal@@YAHPEAEH@Z DD imagerel ?stbtt_GetFontOffsetForIndex_internal@@YAHPEAEH@Z
	DD	imagerel ?stbtt_GetFontOffsetForIndex_internal@@YAHPEAEH@Z+366
	DD	imagerel $unwind$?stbtt_GetFontOffsetForIndex_internal@@YAHPEAEH@Z
$pdata$?stbtt_GetNumberOfFonts_internal@@YAHPEAE@Z DD imagerel ?stbtt_GetNumberOfFonts_internal@@YAHPEAE@Z
	DD	imagerel ?stbtt_GetNumberOfFonts_internal@@YAHPEAE@Z+283
	DD	imagerel $unwind$?stbtt_GetNumberOfFonts_internal@@YAHPEAE@Z
$pdata$?stbtt__get_subrs@@YA?AUstbtt__buf@@U1@0@Z DD imagerel ?stbtt__get_subrs@@YA?AUstbtt__buf@@U1@0@Z
	DD	imagerel ?stbtt__get_subrs@@YA?AUstbtt__buf@@U1@0@Z+485
	DD	imagerel $unwind$?stbtt__get_subrs@@YA?AUstbtt__buf@@U1@0@Z
$pdata$?stbtt__get_svg@@YAHPEAUstbtt_fontinfo@@@Z DD imagerel ?stbtt__get_svg@@YAHPEAUstbtt_fontinfo@@@Z
	DD	imagerel ?stbtt__get_svg@@YAHPEAUstbtt_fontinfo@@@Z+137
	DD	imagerel $unwind$?stbtt__get_svg@@YAHPEAUstbtt_fontinfo@@@Z
$pdata$?stbtt_InitFont_internal@@YAHPEAUstbtt_fontinfo@@PEAEH@Z DD imagerel ?stbtt_InitFont_internal@@YAHPEAUstbtt_fontinfo@@PEAEH@Z
	DD	imagerel ?stbtt_InitFont_internal@@YAHPEAUstbtt_fontinfo@@PEAEH@Z+2243
	DD	imagerel $unwind$?stbtt_InitFont_internal@@YAHPEAUstbtt_fontinfo@@PEAEH@Z
$pdata$?stbtt__GetGlyfOffset@@YAHPEBUstbtt_fontinfo@@H@Z DD imagerel ?stbtt__GetGlyfOffset@@YAHPEBUstbtt_fontinfo@@H@Z
	DD	imagerel ?stbtt__GetGlyfOffset@@YAHPEBUstbtt_fontinfo@@H@Z+392
	DD	imagerel $unwind$?stbtt__GetGlyfOffset@@YAHPEBUstbtt_fontinfo@@H@Z
$pdata$?stbtt__GetGlyphInfoT2@@YAHPEBUstbtt_fontinfo@@HPEAH111@Z DD imagerel ?stbtt__GetGlyphInfoT2@@YAHPEBUstbtt_fontinfo@@HPEAH111@Z
	DD	imagerel ?stbtt__GetGlyphInfoT2@@YAHPEBUstbtt_fontinfo@@HPEAH111@Z+387
	DD	imagerel $unwind$?stbtt__GetGlyphInfoT2@@YAHPEBUstbtt_fontinfo@@HPEAH111@Z
$pdata$?stbtt__close_shape@@YAHPEAUstbtt_vertex@@HHHHHHHHH@Z DD imagerel ?stbtt__close_shape@@YAHPEAUstbtt_vertex@@HHHHHHHHH@Z
	DD	imagerel ?stbtt__close_shape@@YAHPEAUstbtt_vertex@@HHHHHHHHH@Z+416
	DD	imagerel $unwind$?stbtt__close_shape@@YAHPEAUstbtt_vertex@@HHHHHHHHH@Z
$pdata$?stbtt__GetGlyphShapeTT@@YAHPEBUstbtt_fontinfo@@HPEAPEAUstbtt_vertex@@@Z DD imagerel ?stbtt__GetGlyphShapeTT@@YAHPEBUstbtt_fontinfo@@HPEAPEAUstbtt_vertex@@@Z
	DD	imagerel ?stbtt__GetGlyphShapeTT@@YAHPEBUstbtt_fontinfo@@HPEAPEAUstbtt_vertex@@@Z+4987
	DD	imagerel $unwind$?stbtt__GetGlyphShapeTT@@YAHPEBUstbtt_fontinfo@@HPEAPEAUstbtt_vertex@@@Z
$pdata$?stbtt__csctx_v@@YAXPEAUstbtt__csctx@@EHHHHHH@Z DD imagerel ?stbtt__csctx_v@@YAXPEAUstbtt__csctx@@EHHHHHH@Z
	DD	imagerel ?stbtt__csctx_v@@YAXPEAUstbtt__csctx@@EHHHHHH@Z+250
	DD	imagerel $unwind$?stbtt__csctx_v@@YAXPEAUstbtt__csctx@@EHHHHHH@Z
$pdata$?stbtt__csctx_close_shape@@YAXPEAUstbtt__csctx@@@Z DD imagerel ?stbtt__csctx_close_shape@@YAXPEAUstbtt__csctx@@@Z
	DD	imagerel ?stbtt__csctx_close_shape@@YAXPEAUstbtt__csctx@@@Z+130
	DD	imagerel $unwind$?stbtt__csctx_close_shape@@YAXPEAUstbtt__csctx@@@Z
$pdata$?stbtt__csctx_rmove_to@@YAXPEAUstbtt__csctx@@MM@Z DD imagerel ?stbtt__csctx_rmove_to@@YAXPEAUstbtt__csctx@@MM@Z
	DD	imagerel ?stbtt__csctx_rmove_to@@YAXPEAUstbtt__csctx@@MM@Z+214
	DD	imagerel $unwind$?stbtt__csctx_rmove_to@@YAXPEAUstbtt__csctx@@MM@Z
$pdata$?stbtt__csctx_rline_to@@YAXPEAUstbtt__csctx@@MM@Z DD imagerel ?stbtt__csctx_rline_to@@YAXPEAUstbtt__csctx@@MM@Z
	DD	imagerel ?stbtt__csctx_rline_to@@YAXPEAUstbtt__csctx@@MM@Z+148
	DD	imagerel $unwind$?stbtt__csctx_rline_to@@YAXPEAUstbtt__csctx@@MM@Z
$pdata$?stbtt__csctx_rccurve_to@@YAXPEAUstbtt__csctx@@MMMMMM@Z DD imagerel ?stbtt__csctx_rccurve_to@@YAXPEAUstbtt__csctx@@MMMMMM@Z
	DD	imagerel ?stbtt__csctx_rccurve_to@@YAXPEAUstbtt__csctx@@MMMMMM@Z+244
	DD	imagerel $unwind$?stbtt__csctx_rccurve_to@@YAXPEAUstbtt__csctx@@MMMMMM@Z
$pdata$?stbtt__get_subr@@YA?AUstbtt__buf@@U1@H@Z DD imagerel ?stbtt__get_subr@@YA?AUstbtt__buf@@U1@H@Z
	DD	imagerel ?stbtt__get_subr@@YA?AUstbtt__buf@@U1@H@Z+303
	DD	imagerel $unwind$?stbtt__get_subr@@YA?AUstbtt__buf@@U1@H@Z
$pdata$?stbtt__cid_get_glyph_subrs@@YA?AUstbtt__buf@@PEBUstbtt_fontinfo@@H@Z DD imagerel ?stbtt__cid_get_glyph_subrs@@YA?AUstbtt__buf@@PEBUstbtt_fontinfo@@H@Z
	DD	imagerel ?stbtt__cid_get_glyph_subrs@@YA?AUstbtt__buf@@PEBUstbtt_fontinfo@@H@Z+559
	DD	imagerel $unwind$?stbtt__cid_get_glyph_subrs@@YA?AUstbtt__buf@@PEBUstbtt_fontinfo@@H@Z
$pdata$?stbtt__run_charstring@@YAHPEBUstbtt_fontinfo@@HPEAUstbtt__csctx@@@Z DD imagerel ?stbtt__run_charstring@@YAHPEBUstbtt_fontinfo@@HPEAUstbtt__csctx@@@Z
	DD	imagerel ?stbtt__run_charstring@@YAHPEBUstbtt_fontinfo@@HPEAUstbtt__csctx@@@Z+5116
	DD	imagerel $unwind$?stbtt__run_charstring@@YAHPEBUstbtt_fontinfo@@HPEAUstbtt__csctx@@@Z
$pdata$?stbtt__GetGlyphShapeT2@@YAHPEBUstbtt_fontinfo@@HPEAPEAUstbtt_vertex@@@Z DD imagerel ?stbtt__GetGlyphShapeT2@@YAHPEBUstbtt_fontinfo@@HPEAPEAUstbtt_vertex@@@Z
	DD	imagerel ?stbtt__GetGlyphShapeT2@@YAHPEBUstbtt_fontinfo@@HPEAPEAUstbtt_vertex@@@Z+405
	DD	imagerel $unwind$?stbtt__GetGlyphShapeT2@@YAHPEBUstbtt_fontinfo@@HPEAPEAUstbtt_vertex@@@Z
$pdata$?stbtt__GetGlyphKernInfoAdvance@@YAHPEBUstbtt_fontinfo@@HH@Z DD imagerel ?stbtt__GetGlyphKernInfoAdvance@@YAHPEBUstbtt_fontinfo@@HH@Z
	DD	imagerel ?stbtt__GetGlyphKernInfoAdvance@@YAHPEBUstbtt_fontinfo@@HH@Z+313
	DD	imagerel $unwind$?stbtt__GetGlyphKernInfoAdvance@@YAHPEBUstbtt_fontinfo@@HH@Z
$pdata$?stbtt__GetCoverageIndex@@YAHPEAEH@Z DD imagerel ?stbtt__GetCoverageIndex@@YAHPEAEH@Z
	DD	imagerel ?stbtt__GetCoverageIndex@@YAHPEAEH@Z+553
	DD	imagerel $unwind$?stbtt__GetCoverageIndex@@YAHPEAEH@Z
$pdata$?stbtt__GetGlyphClass@@YAHPEAEH@Z DD imagerel ?stbtt__GetGlyphClass@@YAHPEAEH@Z
	DD	imagerel ?stbtt__GetGlyphClass@@YAHPEAEH@Z+472
	DD	imagerel $unwind$?stbtt__GetGlyphClass@@YAHPEAEH@Z
$pdata$?stbtt__GetGlyphGPOSInfoAdvance@@YAHPEBUstbtt_fontinfo@@HH@Z DD imagerel ?stbtt__GetGlyphGPOSInfoAdvance@@YAHPEBUstbtt_fontinfo@@HH@Z
	DD	imagerel ?stbtt__GetGlyphGPOSInfoAdvance@@YAHPEBUstbtt_fontinfo@@HH@Z+1552
	DD	imagerel $unwind$?stbtt__GetGlyphGPOSInfoAdvance@@YAHPEBUstbtt_fontinfo@@HH@Z
$pdata$?stbtt__hheap_alloc@@YAPEAXPEAUstbtt__hheap@@_KPEAX@Z DD imagerel ?stbtt__hheap_alloc@@YAPEAXPEAUstbtt__hheap@@_KPEAX@Z
	DD	imagerel ?stbtt__hheap_alloc@@YAPEAXPEAUstbtt__hheap@@_KPEAX@Z+299
	DD	imagerel $unwind$?stbtt__hheap_alloc@@YAPEAXPEAUstbtt__hheap@@_KPEAX@Z
$pdata$?stbtt__hheap_cleanup@@YAXPEAUstbtt__hheap@@PEAX@Z DD imagerel ?stbtt__hheap_cleanup@@YAXPEAUstbtt__hheap@@PEAX@Z
	DD	imagerel ?stbtt__hheap_cleanup@@YAXPEAUstbtt__hheap@@PEAX@Z+75
	DD	imagerel $unwind$?stbtt__hheap_cleanup@@YAXPEAUstbtt__hheap@@PEAX@Z
$pdata$?stbtt__new_active@@YAPEAUstbtt__active_edge@@PEAUstbtt__hheap@@PEAUstbtt__edge@@HMPEAX@Z DD imagerel ?stbtt__new_active@@YAPEAUstbtt__active_edge@@PEAUstbtt__hheap@@PEAUstbtt__edge@@HMPEAX@Z
	DD	imagerel ?stbtt__new_active@@YAPEAUstbtt__active_edge@@PEAUstbtt__hheap@@PEAUstbtt__edge@@HMPEAX@Z+439
	DD	imagerel $unwind$?stbtt__new_active@@YAPEAUstbtt__active_edge@@PEAUstbtt__hheap@@PEAUstbtt__edge@@HMPEAX@Z
$pdata$?stbtt__handle_clipped_edge@@YAXPEAMHPEAUstbtt__active_edge@@MMMM@Z DD imagerel ?stbtt__handle_clipped_edge@@YAXPEAMHPEAUstbtt__active_edge@@MMMM@Z
	DD	imagerel ?stbtt__handle_clipped_edge@@YAXPEAMHPEAUstbtt__active_edge@@MMMM@Z+1085
	DD	imagerel $unwind$?stbtt__handle_clipped_edge@@YAXPEAMHPEAUstbtt__active_edge@@MMMM@Z
$pdata$?stbtt__sized_trapezoid_area@@YAMMMM@Z DD imagerel ?stbtt__sized_trapezoid_area@@YAMMMM@Z
	DD	imagerel ?stbtt__sized_trapezoid_area@@YAMMMM@Z+137
	DD	imagerel $unwind$?stbtt__sized_trapezoid_area@@YAMMMM@Z
$pdata$?stbtt__position_trapezoid_area@@YAMMMMMM@Z DD imagerel ?stbtt__position_trapezoid_area@@YAMMMMMM@Z
	DD	imagerel ?stbtt__position_trapezoid_area@@YAMMMMMM@Z+71
	DD	imagerel $unwind$?stbtt__position_trapezoid_area@@YAMMMMMM@Z
$pdata$?stbtt__fill_active_edges_new@@YAXPEAM0HPEAUstbtt__active_edge@@M@Z DD imagerel ?stbtt__fill_active_edges_new@@YAXPEAM0HPEAUstbtt__active_edge@@M@Z
	DD	imagerel ?stbtt__fill_active_edges_new@@YAXPEAM0HPEAUstbtt__active_edge@@M@Z+4042
	DD	imagerel $unwind$?stbtt__fill_active_edges_new@@YAXPEAM0HPEAUstbtt__active_edge@@M@Z
$pdata$?stbtt__rasterize_sorted_edges@@YAXPEAUstbtt__bitmap@@PEAUstbtt__edge@@HHHHPEAX@Z DD imagerel ?stbtt__rasterize_sorted_edges@@YAXPEAUstbtt__bitmap@@PEAUstbtt__edge@@HHHHPEAX@Z
	DD	imagerel ?stbtt__rasterize_sorted_edges@@YAXPEAUstbtt__bitmap@@PEAUstbtt__edge@@HHHHPEAX@Z+1305
	DD	imagerel $unwind$?stbtt__rasterize_sorted_edges@@YAXPEAUstbtt__bitmap@@PEAUstbtt__edge@@HHHHPEAX@Z
$pdata$?stbtt__sort_edges_ins_sort@@YAXPEAUstbtt__edge@@H@Z DD imagerel ?stbtt__sort_edges_ins_sort@@YAXPEAUstbtt__edge@@H@Z
	DD	imagerel ?stbtt__sort_edges_ins_sort@@YAXPEAUstbtt__edge@@H@Z+340
	DD	imagerel $unwind$?stbtt__sort_edges_ins_sort@@YAXPEAUstbtt__edge@@H@Z
$pdata$?stbtt__sort_edges_quicksort@@YAXPEAUstbtt__edge@@H@Z DD imagerel ?stbtt__sort_edges_quicksort@@YAXPEAUstbtt__edge@@H@Z
	DD	imagerel ?stbtt__sort_edges_quicksort@@YAXPEAUstbtt__edge@@H@Z+1114
	DD	imagerel $unwind$?stbtt__sort_edges_quicksort@@YAXPEAUstbtt__edge@@H@Z
$pdata$?stbtt__sort_edges@@YAXPEAUstbtt__edge@@H@Z DD imagerel ?stbtt__sort_edges@@YAXPEAUstbtt__edge@@H@Z
	DD	imagerel ?stbtt__sort_edges@@YAXPEAUstbtt__edge@@H@Z+46
	DD	imagerel $unwind$?stbtt__sort_edges@@YAXPEAUstbtt__edge@@H@Z
$pdata$?stbtt__rasterize@@YAXPEAUstbtt__bitmap@@PEAUstbtt__point@@PEAHHMMMMHHHPEAX@Z DD imagerel ?stbtt__rasterize@@YAXPEAUstbtt__bitmap@@PEAUstbtt__point@@PEAHHMMMMHHHPEAX@Z
	DD	imagerel ?stbtt__rasterize@@YAXPEAUstbtt__bitmap@@PEAUstbtt__point@@PEAHHMMMMHHHPEAX@Z+988
	DD	imagerel $unwind$?stbtt__rasterize@@YAXPEAUstbtt__bitmap@@PEAUstbtt__point@@PEAHHMMMMHHHPEAX@Z
$pdata$?stbtt__tesselate_curve@@YAHPEAUstbtt__point@@PEAHMMMMMMMH@Z DD imagerel ?stbtt__tesselate_curve@@YAHPEAUstbtt__point@@PEAHMMMMMMMH@Z
	DD	imagerel ?stbtt__tesselate_curve@@YAHPEAUstbtt__point@@PEAHMMMMMMMH@Z+637
	DD	imagerel $unwind$?stbtt__tesselate_curve@@YAHPEAUstbtt__point@@PEAHMMMMMMMH@Z
$pdata$?stbtt__tesselate_cubic@@YAXPEAUstbtt__point@@PEAHMMMMMMMMMH@Z DD imagerel ?stbtt__tesselate_cubic@@YAXPEAUstbtt__point@@PEAHMMMMMMMMMH@Z
	DD	imagerel ?stbtt__tesselate_cubic@@YAXPEAUstbtt__point@@PEAHMMMMMMMMMH@Z+1345
	DD	imagerel $unwind$?stbtt__tesselate_cubic@@YAXPEAUstbtt__point@@PEAHMMMMMMMMMH@Z
$pdata$?stbtt_FlattenCurves@@YAPEAUstbtt__point@@PEAUstbtt_vertex@@HMPEAPEAHPEAHPEAX@Z DD imagerel ?stbtt_FlattenCurves@@YAPEAUstbtt__point@@PEAUstbtt_vertex@@HMPEAPEAHPEAHPEAX@Z
	DD	imagerel ?stbtt_FlattenCurves@@YAPEAUstbtt__point@@PEAUstbtt_vertex@@HMPEAPEAHPEAHPEAX@Z+1479
	DD	imagerel $unwind$?stbtt_FlattenCurves@@YAPEAUstbtt__point@@PEAUstbtt_vertex@@HMPEAPEAHPEAHPEAX@Z
$pdata$?stbtt_BakeFontBitmap_internal@@YAHPEAEHM0HHHHPEAUstbtt_bakedchar@@@Z DD imagerel ?stbtt_BakeFontBitmap_internal@@YAHPEAEHM0HHHHPEAUstbtt_bakedchar@@@Z
	DD	imagerel ?stbtt_BakeFontBitmap_internal@@YAHPEAEHM0HHHHPEAUstbtt_bakedchar@@@Z+933
	DD	imagerel $unwind$?stbtt_BakeFontBitmap_internal@@YAHPEAEHM0HHHHPEAUstbtt_bakedchar@@@Z
$pdata$?stbrp_pack_rects@@YAXPEAUstbrp_context@@PEAUstbrp_rect@@H@Z DD imagerel ?stbrp_pack_rects@@YAXPEAUstbrp_context@@PEAUstbrp_rect@@H@Z
	DD	imagerel ?stbrp_pack_rects@@YAXPEAUstbrp_context@@PEAUstbrp_rect@@H@Z+384
	DD	imagerel $unwind$?stbrp_pack_rects@@YAXPEAUstbrp_context@@PEAUstbrp_rect@@H@Z
$pdata$?stbtt__h_prefilter@@YAXPEAEHHHI@Z DD imagerel ?stbtt__h_prefilter@@YAXPEAEHHHI@Z
	DD	imagerel ?stbtt__h_prefilter@@YAXPEAEHHHI@Z+1098
	DD	imagerel $unwind$?stbtt__h_prefilter@@YAXPEAEHHHI@Z
$pdata$?stbtt__v_prefilter@@YAXPEAEHHHI@Z DD imagerel ?stbtt__v_prefilter@@YAXPEAEHHHI@Z
	DD	imagerel ?stbtt__v_prefilter@@YAXPEAEHHHI@Z+1221
	DD	imagerel $unwind$?stbtt__v_prefilter@@YAXPEAEHHHI@Z
$pdata$?stbtt__ray_intersect_bezier@@YAHQEAM0000QEAY01M@Z DD imagerel ?stbtt__ray_intersect_bezier@@YAHQEAM0000QEAY01M@Z
	DD	imagerel ?stbtt__ray_intersect_bezier@@YAHQEAM0000QEAY01M@Z+1800
	DD	imagerel $unwind$?stbtt__ray_intersect_bezier@@YAHQEAM0000QEAY01M@Z
$pdata$?equal@@YAHPEAM0@Z DD imagerel ?equal@@YAHPEAM0@Z
	DD	imagerel ?equal@@YAHPEAM0@Z+122
	DD	imagerel $unwind$?equal@@YAHPEAM0@Z
$pdata$?stbtt__compute_crossings_x@@YAHMMHPEAUstbtt_vertex@@@Z DD imagerel ?stbtt__compute_crossings_x@@YAHMMHPEAUstbtt_vertex@@@Z
	DD	imagerel ?stbtt__compute_crossings_x@@YAHMMHPEAUstbtt_vertex@@@Z+2325
	DD	imagerel $unwind$?stbtt__compute_crossings_x@@YAHMMHPEAUstbtt_vertex@@@Z
$pdata$?stbtt__cuberoot@@YAMM@Z DD imagerel ?stbtt__cuberoot@@YAMM@Z
	DD	imagerel ?stbtt__cuberoot@@YAMM@Z+93
	DD	imagerel $unwind$?stbtt__cuberoot@@YAMM@Z
$pdata$?stbtt__solve_cubic@@YAHMMMPEAM@Z DD imagerel ?stbtt__solve_cubic@@YAHMMMPEAM@Z
	DD	imagerel ?stbtt__solve_cubic@@YAHMMMPEAM@Z+769
	DD	imagerel $unwind$?stbtt__solve_cubic@@YAHMMMPEAM@Z
$pdata$?stbtt__CompareUTF8toUTF16_bigendian_prefix@@YAHPEAEH0H@Z DD imagerel ?stbtt__CompareUTF8toUTF16_bigendian_prefix@@YAHPEAEH0H@Z
	DD	imagerel ?stbtt__CompareUTF8toUTF16_bigendian_prefix@@YAHPEAEH0H@Z+1079
	DD	imagerel $unwind$?stbtt__CompareUTF8toUTF16_bigendian_prefix@@YAHPEAEH0H@Z
$pdata$?stbtt_CompareUTF8toUTF16_bigendian_internal@@YAHPEADH0H@Z DD imagerel ?stbtt_CompareUTF8toUTF16_bigendian_internal@@YAHPEADH0H@Z
	DD	imagerel ?stbtt_CompareUTF8toUTF16_bigendian_internal@@YAHPEADH0H@Z+80
	DD	imagerel $unwind$?stbtt_CompareUTF8toUTF16_bigendian_internal@@YAHPEADH0H@Z
$pdata$?stbtt__matchpair@@YAHPEAEI0HHH@Z DD imagerel ?stbtt__matchpair@@YAHPEAEI0HHH@Z
	DD	imagerel ?stbtt__matchpair@@YAHPEAEI0HHH@Z+874
	DD	imagerel $unwind$?stbtt__matchpair@@YAHPEAEI0HHH@Z
$pdata$?stbtt__matches@@YAHPEAEI0H@Z DD imagerel ?stbtt__matches@@YAHPEAEI0H@Z
	DD	imagerel ?stbtt__matches@@YAHPEAEI0H@Z+561
	DD	imagerel $unwind$?stbtt__matches@@YAHPEAEI0H@Z
$pdata$?stbtt_FindMatchingFont_internal@@YAHPEAEPEADH@Z DD imagerel ?stbtt_FindMatchingFont_internal@@YAHPEAEPEADH@Z
	DD	imagerel ?stbtt_FindMatchingFont_internal@@YAHPEAEPEADH@Z+111
	DD	imagerel $unwind$?stbtt_FindMatchingFont_internal@@YAHPEAEPEADH@Z
$pdata$?RunPlayer@@YAXPEAUentity@@M@Z DD imagerel $LN12
	DD	imagerel $LN12+1866
	DD	imagerel $unwind$?RunPlayer@@YAXPEAUentity@@M@Z
$pdata$?OnCollidePlayer@@YAXPEAUentity@@0@Z DD imagerel $LN3
	DD	imagerel $LN3+26
	DD	imagerel $unwind$?OnCollidePlayer@@YAXPEAUentity@@0@Z
$pdata$?ReadFile8@@YA?AUfile_contents@@PEADPEAUmemory_arena@@@Z DD imagerel ?ReadFile8@@YA?AUfile_contents@@PEADPEAUmemory_arena@@@Z
	DD	imagerel ?ReadFile8@@YA?AUfile_contents@@PEADPEAUmemory_arena@@@Z+159
	DD	imagerel $unwind$?ReadFile8@@YA?AUfile_contents@@PEADPEAUmemory_arena@@@Z
pdata	ENDS
;	COMDAT pdata
pdata	SEGMENT
$pdata$json_parse DD imagerel $LN3
	DD	imagerel $LN3+58
	DD	imagerel $unwind$json_parse
pdata	ENDS
;	COMDAT pdata
pdata	SEGMENT
$pdata$json_parse_ex DD imagerel $LN15
	DD	imagerel $LN15+826
	DD	imagerel $unwind$json_parse_ex
pdata	ENDS
;	COMDAT pdata
pdata	SEGMENT
$pdata$?json_hexadecimal_value@@YAHPEBDKPEAK@Z DD imagerel $LN9
	DD	imagerel $LN9+180
	DD	imagerel $unwind$?json_hexadecimal_value@@YAHPEBDKPEAK@Z
pdata	ENDS
;	COMDAT pdata
pdata	SEGMENT
$pdata$?json_skip_whitespace@@YAHPEAUjson_parse_state_s@@@Z DD imagerel $LN21
	DD	imagerel $LN21+288
	DD	imagerel $unwind$?json_skip_whitespace@@YAHPEAUjson_parse_state_s@@@Z
pdata	ENDS
;	COMDAT pdata
pdata	SEGMENT
$pdata$?json_skip_c_style_comments@@YAHPEAUjson_parse_state_s@@@Z DD imagerel $LN19
	DD	imagerel $LN19+599
	DD	imagerel $unwind$?json_skip_c_style_comments@@YAHPEAUjson_parse_state_s@@@Z
pdata	ENDS
;	COMDAT pdata
pdata	SEGMENT
$pdata$?json_skip_all_skippables@@YAHPEAUjson_parse_state_s@@@Z DD imagerel $LN15
	DD	imagerel $LN15+269
	DD	imagerel $unwind$?json_skip_all_skippables@@YAHPEAUjson_parse_state_s@@@Z
pdata	ENDS
;	COMDAT pdata
pdata	SEGMENT
$pdata$?json_get_value_size@@YAHPEAUjson_parse_state_s@@H@Z DD imagerel $LN45
	DD	imagerel $LN45+1562
	DD	imagerel $unwind$?json_get_value_size@@YAHPEAUjson_parse_state_s@@H@Z
pdata	ENDS
;	COMDAT pdata
pdata	SEGMENT
$pdata$?json_get_string_size@@YAHPEAUjson_parse_state_s@@_K@Z DD imagerel $LN57
	DD	imagerel $LN57+1688
	DD	imagerel $unwind$?json_get_string_size@@YAHPEAUjson_parse_state_s@@_K@Z
pdata	ENDS
;	COMDAT pdata
pdata	SEGMENT
$pdata$?is_valid_unquoted_key_char@@YAHD@Z DD imagerel $LN8
	DD	imagerel $LN8+102
	DD	imagerel $unwind$?is_valid_unquoted_key_char@@YAHD@Z
pdata	ENDS
;	COMDAT pdata
pdata	SEGMENT
$pdata$?json_get_key_size@@YAHPEAUjson_parse_state_s@@@Z DD imagerel $LN13
	DD	imagerel $LN13+407
	DD	imagerel $unwind$?json_get_key_size@@YAHPEAUjson_parse_state_s@@@Z
pdata	ENDS
;	COMDAT pdata
pdata	SEGMENT
$pdata$?json_get_object_size@@YAHPEAUjson_parse_state_s@@H@Z DD imagerel $LN33
	DD	imagerel $LN33+972
	DD	imagerel $unwind$?json_get_object_size@@YAHPEAUjson_parse_state_s@@H@Z
pdata	ENDS
;	COMDAT pdata
pdata	SEGMENT
$pdata$?json_get_array_size@@YAHPEAUjson_parse_state_s@@@Z DD imagerel $LN17
	DD	imagerel $LN17+525
	DD	imagerel $unwind$?json_get_array_size@@YAHPEAUjson_parse_state_s@@@Z
pdata	ENDS
;	COMDAT pdata
pdata	SEGMENT
$pdata$?json_get_number_size@@YAHPEAUjson_parse_state_s@@@Z DD imagerel $LN70
	DD	imagerel $LN70+2393
	DD	imagerel $unwind$?json_get_number_size@@YAHPEAUjson_parse_state_s@@@Z
pdata	ENDS
;	COMDAT pdata
pdata	SEGMENT
$pdata$?json_parse_value@@YAXPEAUjson_parse_state_s@@HPEAUjson_value_s@@@Z DD imagerel $LN36
	DD	imagerel $LN36+1778
	DD	imagerel $unwind$?json_parse_value@@YAXPEAUjson_parse_state_s@@HPEAUjson_value_s@@@Z
pdata	ENDS
;	COMDAT pdata
pdata	SEGMENT
$pdata$?json_parse_string@@YAXPEAUjson_parse_state_s@@PEAUjson_string_s@@@Z DD imagerel $LN36
	DD	imagerel $LN36+1736
	DD	imagerel $unwind$?json_parse_string@@YAXPEAUjson_parse_state_s@@PEAUjson_string_s@@@Z
pdata	ENDS
;	COMDAT pdata
pdata	SEGMENT
$pdata$?json_parse_key@@YAXPEAUjson_parse_state_s@@PEAUjson_string_s@@@Z DD imagerel $LN10
	DD	imagerel $LN10+369
	DD	imagerel $unwind$?json_parse_key@@YAXPEAUjson_parse_state_s@@PEAUjson_string_s@@@Z
pdata	ENDS
;	COMDAT pdata
pdata	SEGMENT
$pdata$?json_parse_object@@YAXPEAUjson_parse_state_s@@HPEAUjson_object_s@@@Z DD imagerel $LN23
	DD	imagerel $LN23+1139
	DD	imagerel $unwind$?json_parse_object@@YAXPEAUjson_parse_state_s@@HPEAUjson_object_s@@@Z
pdata	ENDS
;	COMDAT pdata
pdata	SEGMENT
$pdata$?json_parse_array@@YAXPEAUjson_parse_state_s@@PEAUjson_array_s@@@Z DD imagerel $LN15
	DD	imagerel $LN15+632
	DD	imagerel $unwind$?json_parse_array@@YAXPEAUjson_parse_state_s@@PEAUjson_array_s@@@Z
pdata	ENDS
;	COMDAT pdata
pdata	SEGMENT
$pdata$?json_parse_number@@YAXPEAUjson_parse_state_s@@PEAUjson_number_s@@@Z DD imagerel $LN46
	DD	imagerel $LN46+1163
	DD	imagerel $unwind$?json_parse_number@@YAXPEAUjson_parse_state_s@@PEAUjson_number_s@@@Z
pdata	ENDS
pdata	SEGMENT
$pdata$?FindJSONObjectElement@@YAPEAUjson_object_element_s@@Ustring8@@PEAUjson_object_s@@@Z DD imagerel ?FindJSONObjectElement@@YAPEAUjson_object_element_s@@Ustring8@@PEAUjson_object_s@@@Z
	DD	imagerel ?FindJSONObjectElement@@YAPEAUjson_object_element_s@@Ustring8@@PEAUjson_object_s@@@Z+218
	DD	imagerel $unwind$?FindJSONObjectElement@@YAPEAUjson_object_element_s@@Ustring8@@PEAUjson_object_s@@@Z
$pdata$?GrabJSONArrayElementIndexed@@YAPEAUjson_array_element_s@@IPEAUjson_array_s@@@Z DD imagerel ?GrabJSONArrayElementIndexed@@YAPEAUjson_array_element_s@@IPEAUjson_array_s@@@Z
	DD	imagerel ?GrabJSONArrayElementIndexed@@YAPEAUjson_array_element_s@@IPEAUjson_array_s@@@Z+96
	DD	imagerel $unwind$?GrabJSONArrayElementIndexed@@YAPEAUjson_array_element_s@@IPEAUjson_array_s@@@Z
$pdata$?GrabJSONArray@@YAPEAUjson_array_s@@Ustring8@@PEAUjson_object_s@@@Z DD imagerel ?GrabJSONArray@@YAPEAUjson_array_s@@Ustring8@@PEAUjson_object_s@@@Z
	DD	imagerel ?GrabJSONArray@@YAPEAUjson_array_s@@Ustring8@@PEAUjson_object_s@@@Z+99
	DD	imagerel $unwind$?GrabJSONArray@@YAPEAUjson_array_s@@Ustring8@@PEAUjson_object_s@@@Z
$pdata$?GrabNumberFromJSONObject@@YA?AW4gltf_result@@Ustring8@@PEAUjson_object_s@@PEAM@Z DD imagerel ?GrabNumberFromJSONObject@@YA?AW4gltf_result@@Ustring8@@PEAUjson_object_s@@PEAM@Z
	DD	imagerel ?GrabNumberFromJSONObject@@YA?AW4gltf_result@@Ustring8@@PEAUjson_object_s@@PEAM@Z+132
	DD	imagerel $unwind$?GrabNumberFromJSONObject@@YA?AW4gltf_result@@Ustring8@@PEAUjson_object_s@@PEAM@Z
$pdata$?GrabNumberFromJSONArray@@YA?AW4gltf_result@@HPEAUjson_array_s@@PEAM@Z DD imagerel ?GrabNumberFromJSONArray@@YA?AW4gltf_result@@HPEAUjson_array_s@@PEAM@Z
	DD	imagerel ?GrabNumberFromJSONArray@@YA?AW4gltf_result@@HPEAUjson_array_s@@PEAM@Z+169
	DD	imagerel $unwind$?GrabNumberFromJSONArray@@YA?AW4gltf_result@@HPEAUjson_array_s@@PEAM@Z
$pdata$?GetGLTFBinaryInfo@@YA?AUfile_contents@@PEAEPEAI1Ustring8@@HPEAUmemory_arena@@2PEAUjson_object_s@@4PEAUjson_array_s@@55@Z DD imagerel ?GetGLTFBinaryInfo@@YA?AUfile_contents@@PEAEPEAI1Ustring8@@HPEAUmemory_arena@@2PEAUjson_object_s@@4PEAUjson_array_s@@55@Z
	DD	imagerel ?GetGLTFBinaryInfo@@YA?AUfile_contents@@PEAEPEAI1Ustring8@@HPEAUmemory_arena@@2PEAUjson_object_s@@4PEAUjson_array_s@@55@Z+1715
	DD	imagerel $unwind$?GetGLTFBinaryInfo@@YA?AUfile_contents@@PEAEPEAI1Ustring8@@HPEAUmemory_arena@@2PEAUjson_object_s@@4PEAUjson_array_s@@55@Z
$pdata$?LoadGLTF@@YA?AUloaded_model@@PEADPEAUmemory_arena@@@Z DD imagerel ?LoadGLTF@@YA?AUloaded_model@@PEADPEAUmemory_arena@@@Z
	DD	imagerel ?LoadGLTF@@YA?AUloaded_model@@PEADPEAUmemory_arena@@@Z+5529
	DD	imagerel $unwind$?LoadGLTF@@YA?AUloaded_model@@PEADPEAUmemory_arena@@@Z
$pdata$?CalculateTransform@@YAXPEATmat4@@Tv3@@11@Z DD imagerel ?CalculateTransform@@YAXPEATmat4@@Tv3@@11@Z
	DD	imagerel ?CalculateTransform@@YAXPEATmat4@@Tv3@@11@Z+466
	DD	imagerel $unwind$?CalculateTransform@@YAXPEATmat4@@Tv3@@11@Z
$pdata$?RenderEntity@@YAXPEAUentity@@0PEAX1Upoint_light@@PEATmat4@@3@Z DD imagerel ?RenderEntity@@YAXPEAUentity@@0PEAX1Upoint_light@@PEATmat4@@3@Z
	DD	imagerel ?RenderEntity@@YAXPEAUentity@@0PEAX1Upoint_light@@PEATmat4@@3@Z+1826
	DD	imagerel $unwind$?RenderEntity@@YAXPEAUentity@@0PEAX1Upoint_light@@PEATmat4@@3@Z
$pdata$?ReadFile16@@YA?AUfile_contents@@PEA_WPEAUmemory_arena@@@Z DD imagerel ?ReadFile16@@YA?AUfile_contents@@PEA_WPEAUmemory_arena@@@Z
	DD	imagerel ?ReadFile16@@YA?AUfile_contents@@PEA_WPEAUmemory_arena@@@Z+158
	DD	imagerel $unwind$?ReadFile16@@YA?AUfile_contents@@PEA_WPEAUmemory_arena@@@Z
$pdata$?CreateImage@@YA?AUloaded_image@@PEADPEAUmemory_arena@@@Z DD imagerel ?CreateImage@@YA?AUloaded_image@@PEADPEAUmemory_arena@@@Z
	DD	imagerel ?CreateImage@@YA?AUloaded_image@@PEADPEAUmemory_arena@@@Z+191
	DD	imagerel $unwind$?CreateImage@@YA?AUloaded_image@@PEADPEAUmemory_arena@@@Z
$pdata$?LoadFont@@YA?AUfont@@PEA_WPEAUmemory_arena@@M@Z DD imagerel ?LoadFont@@YA?AUfont@@PEA_WPEAUmemory_arena@@M@Z
	DD	imagerel ?LoadFont@@YA?AUfont@@PEA_WPEAUmemory_arena@@M@Z+617
	DD	imagerel $unwind$?LoadFont@@YA?AUfont@@PEA_WPEAUmemory_arena@@M@Z
$pdata$?GetSoundAsset@@YAPEAUloaded_sound@@W4sound_asset_id@@@Z DD imagerel ?GetSoundAsset@@YAPEAUloaded_sound@@W4sound_asset_id@@@Z
	DD	imagerel ?GetSoundAsset@@YAPEAUloaded_sound@@W4sound_asset_id@@@Z+50
	DD	imagerel $unwind$?GetSoundAsset@@YAPEAUloaded_sound@@W4sound_asset_id@@@Z
$pdata$?GetImageAsset@@YAPEAUloaded_image@@W4image_asset_id@@@Z DD imagerel ?GetImageAsset@@YAPEAUloaded_image@@W4image_asset_id@@@Z
	DD	imagerel ?GetImageAsset@@YAPEAUloaded_image@@W4image_asset_id@@@Z+50
	DD	imagerel $unwind$?GetImageAsset@@YAPEAUloaded_image@@W4image_asset_id@@@Z
$pdata$?GetModelAsset@@YAPEAUloaded_model@@W4model_asset_id@@@Z DD imagerel ?GetModelAsset@@YAPEAUloaded_model@@W4model_asset_id@@@Z
	DD	imagerel ?GetModelAsset@@YAPEAUloaded_model@@W4model_asset_id@@@Z+53
	DD	imagerel $unwind$?GetModelAsset@@YAPEAUloaded_model@@W4model_asset_id@@@Z
$pdata$?CreateEntity@@YAPEAUentity@@PEAU1@HUpoint_light@@W4model_asset_id@@Tv3@@33P6AX0M@ZP6AX00@Z@Z DD imagerel ?CreateEntity@@YAPEAUentity@@PEAU1@HUpoint_light@@W4model_asset_id@@Tv3@@33P6AX0M@ZP6AX00@Z@Z
	DD	imagerel ?CreateEntity@@YAPEAUentity@@PEAU1@HUpoint_light@@W4model_asset_id@@Tv3@@33P6AX0M@ZP6AX00@Z@Z+442
	DD	imagerel $unwind$?CreateEntity@@YAPEAUentity@@PEAU1@HUpoint_light@@W4model_asset_id@@Tv3@@33P6AX0M@ZP6AX00@Z@Z
$pdata$?GameUpdateAndRender@@YAHW4window_flags@@Uwindow_dimension@@PEAUgame_memory@@PEAUgame_input@@M@Z DD imagerel $LN72
	DD	imagerel $LN72+8146
	DD	imagerel $unwind$?GameUpdateAndRender@@YAHW4window_flags@@Uwindow_dimension@@PEAUgame_memory@@PEAUgame_input@@M@Z
pdata	ENDS
;	COMDAT __xmm@fa7efa7efa7efa7efa7efa7efa7efa7e
CONST	SEGMENT
__xmm@fa7efa7efa7efa7efa7efa7efa7efa7e DB '~', 0faH, '~', 0faH, '~', 0faH
	DB	'~', 0faH, '~', 0faH, '~', 0faH, '~', 0faH, '~', 0faH
CONST	ENDS
;	COMDAT __xmm@f9c31a9df9c31a9df9c31a9df9c31a9d
CONST	SEGMENT
__xmm@f9c31a9df9c31a9df9c31a9df9c31a9d DB 09dH, 01aH, 0c3H, 0f9H, 09dH, 01aH
	DB	0c3H, 0f9H, 09dH, 01aH, 0c3H, 0f9H, 09dH, 01aH, 0c3H, 0f9H
CONST	ENDS
;	COMDAT __xmm@f493f493f493f493f493f493f493f493
CONST	SEGMENT
__xmm@f493f493f493f493f493f493f493f493 DB 093H, 0f4H, 093H, 0f4H, 093H, 0f4H
	DB	093H, 0f4H, 093H, 0f4H, 093H, 0f4H, 093H, 0f4H, 093H, 0f4H
CONST	ENDS
;	COMDAT __xmm@eb1a08a9eb1a08a9eb1a08a9eb1a08a9
CONST	SEGMENT
__xmm@eb1a08a9eb1a08a9eb1a08a9eb1a08a9 DB 0a9H, 08H, 01aH, 0ebH, 0a9H, 08H
	DB	01aH, 0ebH, 0a9H, 08H, 01aH, 0ebH, 0a9H, 08H, 01aH, 0ebH
CONST	ENDS
;	COMDAT __xmm@e9cf12d0e9cf12d0e9cf12d0e9cf12d0
CONST	SEGMENT
__xmm@e9cf12d0e9cf12d0e9cf12d0e9cf12d0 DB 0d0H, 012H, 0cfH, 0e9H, 0d0H, 012H
	DB	0cfH, 0e9H, 0d0H, 012H, 0cfH, 0e9H, 0d0H, 012H, 0cfH, 0e9H
CONST	ENDS
;	COMDAT __xmm@e09ee565e09ee565e09ee565e09ee565
CONST	SEGMENT
__xmm@e09ee565e09ee565e09ee565e09ee565 DB 'e', 0e5H, 09eH, 0e0H, 'e', 0e5H
	DB	09eH, 0e0H, 'e', 0e5H, 09eH, 0e0H, 'e', 0e5H, 09eH, 0e0H
CONST	ENDS
;	COMDAT __xmm@80808080808080808080808080808080
CONST	SEGMENT
__xmm@80808080808080808080808080808080 DB 080H, 080H, 080H, 080H, 080H, 080H
	DB	080H, 080H, 080H, 080H, 080H, 080H, 080H, 080H, 080H, 080H
CONST	ENDS
;	COMDAT __xmm@80000000800000008000000080000000
CONST	SEGMENT
__xmm@80000000800000008000000080000000 DB 00H, 00H, 00H, 080H, 00H, 00H, 00H
	DB	080H, 00H, 00H, 00H, 080H, 00H, 00H, 00H, 080H
CONST	ENDS
;	COMDAT __xmm@80000000000000008000000000000000
CONST	SEGMENT
__xmm@80000000000000008000000000000000 DB 00H, 00H, 00H, 00H, 00H, 00H, 00H
	DB	080H, 00H, 00H, 00H, 00H, 00H, 00H, 00H, 080H
CONST	ENDS
;	COMDAT __xmm@7fffffffffffffff7fffffffffffffff
CONST	SEGMENT
__xmm@7fffffffffffffff7fffffffffffffff DB 0ffH, 0ffH, 0ffH, 0ffH, 0ffH, 0ffH
	DB	0ffH, 07fH, 0ffH, 0ffH, 0ffH, 0ffH, 0ffH, 0ffH, 0ffH, 07fH
CONST	ENDS
;	COMDAT __xmm@1c5a1c5a1c5a1c5a1c5a1c5a1c5a1c5a
CONST	SEGMENT
__xmm@1c5a1c5a1c5a1c5a1c5a1c5a1c5a1c5a DB 'Z', 01cH, 'Z', 01cH, 'Z', 01cH
	DB	'Z', 01cH, 'Z', 01cH, 'Z', 01cH, 'Z', 01cH, 'Z', 01cH
CONST	ENDS
;	COMDAT __xmm@166f166f166f166f166f166f166f166f
CONST	SEGMENT
__xmm@166f166f166f166f166f166f166f166f DB 'o', 016H, 'o', 016H, 'o', 016H
	DB	'o', 016H, 'o', 016H, 'o', 016H, 'o', 016H, 'o', 016H
CONST	ENDS
;	COMDAT __xmm@12d0046b12d0046b12d0046b12d0046b
CONST	SEGMENT
__xmm@12d0046b12d0046b12d0046b12d0046b DB 'k', 04H, 0d0H, 012H, 'k', 04H, 0d0H
	DB	012H, 'k', 04H, 0d0H, 012H, 'k', 04H, 0d0H, 012H
CONST	ENDS
;	COMDAT __xmm@11c8f9c311c8f9c311c8f9c311c8f9c3
CONST	SEGMENT
__xmm@11c8f9c311c8f9c311c8f9c311c8f9c3 DB 0c3H, 0f9H, 0c8H, 011H, 0c3H, 0f9H
	DB	0c8H, 011H, 0c3H, 0f9H, 0c8H, 011H, 0c3H, 0f9H, 0c8H, 011H
CONST	ENDS
;	COMDAT __xmm@11c8e09e11c8e09e11c8e09e11c8e09e
CONST	SEGMENT
__xmm@11c8e09e11c8e09e11c8e09e11c8e09e DB 09eH, 0e0H, 0c8H, 011H, 09eH, 0e0H
	DB	0c8H, 011H, 09eH, 0e0H, 0c8H, 011H, 09eH, 0e0H, 0c8H, 011H
CONST	ENDS
;	COMDAT __xmm@08a914e808a914e808a914e808a914e8
CONST	SEGMENT
__xmm@08a914e808a914e808a914e808a914e8 DB 0e8H, 014H, 0a9H, 08H, 0e8H, 014H
	DB	0a9H, 08H, 0e8H, 014H, 0a9H, 08H, 0e8H, 014H, 0a9H, 08H
CONST	ENDS
;	COMDAT __xmm@01010000010100000101000001010000
CONST	SEGMENT
__xmm@01010000010100000101000001010000 DB 00H, 00H, 01H, 01H, 00H, 00H, 01H
	DB	01H, 00H, 00H, 01H, 01H, 00H, 00H, 01H, 01H
CONST	ENDS
;	COMDAT __xmm@00ff00ff00ff00ff00ff00ff00ff00ff
CONST	SEGMENT
__xmm@00ff00ff00ff00ff00ff00ff00ff00ff DB 0ffH, 00H, 0ffH, 00H, 0ffH, 00H
	DB	0ffH, 00H, 0ffH, 00H, 0ffH, 00H, 0ffH, 00H, 0ffH, 00H
CONST	ENDS
;	COMDAT __xmm@00080008000800080008000800080008
CONST	SEGMENT
__xmm@00080008000800080008000800080008 DB 08H, 00H, 08H, 00H, 08H, 00H, 08H
	DB	00H, 08H, 00H, 08H, 00H, 08H, 00H, 08H, 00H
CONST	ENDS
;	COMDAT __xmm@00000200000002000000020000000200
CONST	SEGMENT
__xmm@00000200000002000000020000000200 DB 00H, 02H, 00H, 00H, 00H, 02H, 00H
	DB	00H, 00H, 02H, 00H, 00H, 00H, 02H, 00H, 00H
CONST	ENDS
;	COMDAT __real@c1d80000
CONST	SEGMENT
__real@c1d80000 DD 0c1d80000r			; -27
CONST	ENDS
;	COMDAT __real@c0000000
CONST	SEGMENT
__real@c0000000 DD 0c0000000r			; -2
CONST	ENDS
;	COMDAT __real@bf800000
CONST	SEGMENT
__real@bf800000 DD 0bf800000r			; -1
CONST	ENDS
;	COMDAT __real@bf000000
CONST	SEGMENT
__real@bf000000 DD 0bf000000r			; -0.5
CONST	ENDS
;	COMDAT __real@be99999a
CONST	SEGMENT
__real@be99999a DD 0be99999ar			; -0.3
CONST	ENDS
;	COMDAT __real@be4ccccd
CONST	SEGMENT
__real@be4ccccd DD 0be4ccccdr			; -0.2
CONST	ENDS
;	COMDAT __real@497423f0
CONST	SEGMENT
__real@497423f0 DD 0497423f0r			; 999999
CONST	ENDS
;	COMDAT __real@47800000
CONST	SEGMENT
__real@47800000 DD 047800000r			; 65536
CONST	ENDS
;	COMDAT __real@477fff00
CONST	SEGMENT
__real@477fff00 DD 0477fff00r			; 65535
CONST	ENDS
;	COMDAT __real@46800000
CONST	SEGMENT
__real@46800000 DD 046800000r			; 16384
CONST	ENDS
;	COMDAT __real@437f0000
CONST	SEGMENT
__real@437f0000 DD 0437f0000r			; 255
CONST	ENDS
;	COMDAT __real@42c80000
CONST	SEGMENT
__real@42c80000 DD 042c80000r			; 100
CONST	ENDS
;	COMDAT __real@42b40000
CONST	SEGMENT
__real@42b40000 DD 042b40000r			; 90
CONST	ENDS
;	COMDAT __real@42700000
CONST	SEGMENT
__real@42700000 DD 042700000r			; 60
CONST	ENDS
;	COMDAT __real@42000000
CONST	SEGMENT
__real@42000000 DD 042000000r			; 32
CONST	ENDS
;	COMDAT __real@41f00000
CONST	SEGMENT
__real@41f00000 DD 041f00000r			; 30
CONST	ENDS
;	COMDAT __real@41d80000
CONST	SEGMENT
__real@41d80000 DD 041d80000r			; 27
CONST	ENDS
;	COMDAT __real@41200000
CONST	SEGMENT
__real@41200000 DD 041200000r			; 10
CONST	ENDS
;	COMDAT __real@41100000
CONST	SEGMENT
__real@41100000 DD 041100000r			; 9
CONST	ENDS
;	COMDAT __real@40a00000
CONST	SEGMENT
__real@40a00000 DD 040a00000r			; 5
CONST	ENDS
;	COMDAT __real@40800000
CONST	SEGMENT
__real@40800000 DD 040800000r			; 4
CONST	ENDS
;	COMDAT __real@40400000
CONST	SEGMENT
__real@40400000 DD 040400000r			; 3
CONST	ENDS
;	COMDAT __real@4000000000000000
CONST	SEGMENT
__real@4000000000000000 DQ 04000000000000000r	; 2
CONST	ENDS
;	COMDAT __real@40000000
CONST	SEGMENT
__real@40000000 DD 040000000r			; 2
CONST	ENDS
;	COMDAT __real@3ff921fafc8b007a
CONST	SEGMENT
__real@3ff921fafc8b007a DQ 03ff921fafc8b007ar	; 1.5708
CONST	ENDS
;	COMDAT __real@3ff028f5c0000000
CONST	SEGMENT
__real@3ff028f5c0000000 DQ 03ff028f5c0000000r	; 1.01
CONST	ENDS
;	COMDAT __real@3ff0000000000000
CONST	SEGMENT
__real@3ff0000000000000 DQ 03ff0000000000000r	; 1
CONST	ENDS
;	COMDAT __real@3fddb3d7
CONST	SEGMENT
__real@3fddb3d7 DD 03fddb3d7r			; 1.73205
CONST	ENDS
;	COMDAT __real@3fd5555560000000
CONST	SEGMENT
__real@3fd5555560000000 DQ 03fd5555560000000r	; 0.333333
CONST	ENDS
;	COMDAT __real@3f800000
CONST	SEGMENT
__real@3f800000 DD 03f800000r			; 1
CONST	ENDS
;	COMDAT __real@3f7d70a4
CONST	SEGMENT
__real@3f7d70a4 DD 03f7d70a4r			; 0.99
CONST	ENDS
;	COMDAT __real@3f666666
CONST	SEGMENT
__real@3f666666 DD 03f666666r			; 0.9
CONST	ENDS
;	COMDAT __real@3f4ccccd
CONST	SEGMENT
__real@3f4ccccd DD 03f4ccccdr			; 0.8
CONST	ENDS
;	COMDAT __real@3f000000
CONST	SEGMENT
__real@3f000000 DD 03f000000r			; 0.5
CONST	ENDS
;	COMDAT __real@3eb33333
CONST	SEGMENT
__real@3eb33333 DD 03eb33333r			; 0.35
CONST	ENDS
;	COMDAT __real@3e99999a
CONST	SEGMENT
__real@3e99999a DD 03e99999ar			; 0.3
CONST	ENDS
;	COMDAT __real@3e800000
CONST	SEGMENT
__real@3e800000 DD 03e800000r			; 0.25
CONST	ENDS
;	COMDAT __real@3dcccccd
CONST	SEGMENT
__real@3dcccccd DD 03dcccccdr			; 0.1
CONST	ENDS
;	COMDAT __real@3da3d70a
CONST	SEGMENT
__real@3da3d70a DD 03da3d70ar			; 0.08
CONST	ENDS
;	COMDAT __real@3c8efa35
CONST	SEGMENT
__real@3c8efa35 DD 03c8efa35r			; 0.0174533
CONST	ENDS
;	COMDAT __real@3c23d70a
CONST	SEGMENT
__real@3c23d70a DD 03c23d70ar			; 0.01
CONST	ENDS
;	COMDAT __real@3a83126f
CONST	SEGMENT
__real@3a83126f DD 03a83126fr			; 0.001
CONST	ENDS
;	COMDAT __real@38d1b717
CONST	SEGMENT
__real@38d1b717 DD 038d1b717r			; 0.0001
CONST	ENDS
;	COMDAT __real@34000000
CONST	SEGMENT
__real@34000000 DD 034000000r			; 1.19209e-07
CONST	ENDS
;	COMDAT __real@0000000000000000
CONST	SEGMENT
__real@0000000000000000 DQ 00000000000000000r	; 0
CONST	ENDS
;	COMDAT __real@00000000
CONST	SEGMENT
__real@00000000 DD 000000000r			; 0
CONST	ENDS
;	COMDAT ??_C@_03ICJPMMHB@NaN@
CONST	SEGMENT
??_C@_03ICJPMMHB@NaN@ DB 'NaN', 00H			; `string'
CONST	ENDS
;	COMDAT ??_C@_08KEBCLIFP@Infinity@
CONST	SEGMENT
??_C@_08KEBCLIFP@Infinity@ DB 'Infinity', 00H		; `string'
CONST	ENDS
;	COMDAT ?shift_table@?1??stbi__shiftsigned@@YAHIHH@Z@4PAIA
_DATA	SEGMENT
?shift_table@?1??stbi__shiftsigned@@YAHIHH@Z@4PAIA DD 00H ; `stbi__shiftsigned'::`2'::shift_table
	DD	00H
	DD	00H
	DD	01H
	DD	00H
	DD	02H
	DD	04H
	DD	06H
	DD	00H
_DATA	ENDS
;	COMDAT ?mul_table@?1??stbi__shiftsigned@@YAHIHH@Z@4PAIA
_DATA	SEGMENT
?mul_table@?1??stbi__shiftsigned@@YAHIHH@Z@4PAIA DD 00H	; `stbi__shiftsigned'::`2'::mul_table
	DD	0ffH
	DD	055H
	DD	049H
	DD	011H
	DD	021H
	DD	041H
	DD	081H
	DD	01H
_DATA	ENDS
;	COMDAT ?invalid_chunk@?JH@??stbi__parse_png_file@@YAHPEAUstbi__png@@HH@Z@4PADA
_DATA	SEGMENT
?invalid_chunk@?JH@??stbi__parse_png_file@@YAHPEAUstbi__png@@HH@Z@4PADA DB 'X'
	DB	'XXX PNG chunk not known', 00H		; `stbi__parse_png_file'::`151'::invalid_chunk
_DATA	ENDS
;	COMDAT ?png_sig@?1??stbi__check_png_header@@YAHPEAUstbi__context@@@Z@4QBEB
CONST	SEGMENT
?png_sig@?1??stbi__check_png_header@@YAHPEAUstbi__context@@@Z@4QBEB DB 089H ; `stbi__check_png_header'::`2'::png_sig
	DB	050H
	DB	04eH
	DB	047H
	DB	0dH
	DB	0aH
	DB	01aH
	DB	0aH
CONST	ENDS
;	COMDAT ?length_dezigzag@?1??stbi__compute_huffman_codes@@YAHPEAUstbi__zbuf@@@Z@4QBEB
CONST	SEGMENT
?length_dezigzag@?1??stbi__compute_huffman_codes@@YAHPEAUstbi__zbuf@@@Z@4QBEB DB 010H ; `stbi__compute_huffman_codes'::`2'::length_dezigzag
	DB	011H
	DB	012H
	DB	00H
	DB	08H
	DB	07H
	DB	09H
	DB	06H
	DB	0aH
	DB	05H
	DB	0bH
	DB	04H
	DB	0cH
	DB	03H
	DB	0dH
	DB	02H
	DB	0eH
	DB	01H
	DB	0fH
CONST	ENDS
;	COMDAT ?rgb@?BG@??stbi__process_frame_header@@YAHPEAUstbi__jpeg@@H@Z@4QBEB
CONST	SEGMENT
?rgb@?BG@??stbi__process_frame_header@@YAHPEAUstbi__jpeg@@H@Z@4QBEB DB 052H ; `stbi__process_frame_header'::`22'::rgb
	DB	047H
	DB	042H
CONST	ENDS
;	COMDAT ?tag@?DE@??stbi__process_marker@@YAHPEAUstbi__jpeg@@H@Z@4QBEB
CONST	SEGMENT
?tag@?DE@??stbi__process_marker@@YAHPEAUstbi__jpeg@@H@Z@4QBEB DB 041H ; `stbi__process_marker'::`52'::tag
	DB	064H
	DB	06fH
	DB	062H
	DB	065H
	DB	00H
CONST	ENDS
;	COMDAT ?tag@?CL@??stbi__process_marker@@YAHPEAUstbi__jpeg@@H@Z@4QBEB
CONST	SEGMENT
?tag@?CL@??stbi__process_marker@@YAHPEAUstbi__jpeg@@H@Z@4QBEB DB 04aH ; `stbi__process_marker'::`43'::tag
	DB	046H
	DB	049H
	DB	046H
	DB	00H
CONST	ENDS
_DATA	SEGMENT
?stbi__stdio_callbacks@@3Ustbi_io_callbacks@@A DQ FLAT:?stbi__stdio_read@@YAHPEAXPEADH@Z ; stbi__stdio_callbacks
	DQ	FLAT:?stbi__stdio_skip@@YAXPEAXH@Z
	DQ	FLAT:?stbi__stdio_eof@@YAHPEAX@Z
?stbi__l2h_gamma@@3MA DD 0400ccccdr		; 2.2	; stbi__l2h_gamma
?stbi__l2h_scale@@3MA DD 03f800000r		; 1	; stbi__l2h_scale
?stbi__h2l_gamma_i@@3MA DD 03ee8ba2er		; 0.454545 ; stbi__h2l_gamma_i
?stbi__h2l_scale_i@@3MA DD 03f800000r		; 1	; stbi__h2l_scale_i
?first_row_filter@@3PAEA DB 00H				; first_row_filter
	DB	01H
	DB	00H
	DB	05H
	DB	06H
	ORG $+3
?GlobalSensitivity@@3MA DD 042480000r		; 50	; GlobalSensitivity
?GlobalMaxPitch@@3MA DD 042b20000r		; 89	; GlobalMaxPitch
?GlobalMinPitch@@3MA DD 0c2b20000r		; -89	; GlobalMinPitch
?GlobalSpeed@@3MA DD 041400000r			; 12	; GlobalSpeed
?Gravity@@3MA DD 0c26b70a4r			; -58.86 ; Gravity
?JumpHeight@@3MA DD 040600000r			; 3.5	; JumpHeight
_DATA	ENDS
;	COMDAT xdata
xdata	SEGMENT
$unwind$?json_parse_number@@YAXPEAUjson_parse_state_s@@PEAUjson_number_s@@@Z DD 010e01H
	DD	0c20eH
xdata	ENDS
;	COMDAT xdata
xdata	SEGMENT
$unwind$?json_parse_array@@YAXPEAUjson_parse_state_s@@PEAUjson_array_s@@@Z DD 010e01H
	DD	0c20eH
xdata	ENDS
;	COMDAT xdata
xdata	SEGMENT
$unwind$?json_parse_object@@YAXPEAUjson_parse_state_s@@HPEAUjson_object_s@@@Z DD 021501H
	DD	0110115H
xdata	ENDS
;	COMDAT xdata
xdata	SEGMENT
$unwind$?json_parse_key@@YAXPEAUjson_parse_state_s@@PEAUjson_string_s@@@Z DD 010e01H
	DD	0820eH
xdata	ENDS
;	COMDAT xdata
xdata	SEGMENT
$unwind$?json_parse_string@@YAXPEAUjson_parse_state_s@@PEAUjson_string_s@@@Z DD 010e01H
	DD	0e20eH
xdata	ENDS
;	COMDAT xdata
xdata	SEGMENT
$unwind$?json_parse_value@@YAXPEAUjson_parse_state_s@@HPEAUjson_value_s@@@Z DD 011201H
	DD	0a212H
xdata	ENDS
;	COMDAT voltbl
voltbl	SEGMENT
_volmd	DW	018H
	DW	08a3H
voltbl	ENDS
;	COMDAT xdata
xdata	SEGMENT
$unwind$?json_get_number_size@@YAHPEAUjson_parse_state_s@@@Z DD 042019H
	DD	013010eH
	DD	060067007H
	DD	imagerel __GSHandlerCheck
	DD	080H
xdata	ENDS
;	COMDAT xdata
xdata	SEGMENT
$unwind$?json_get_array_size@@YAHPEAUjson_parse_state_s@@@Z DD 010901H
	DD	0a209H
xdata	ENDS
;	COMDAT xdata
xdata	SEGMENT
$unwind$?json_get_object_size@@YAHPEAUjson_parse_state_s@@H@Z DD 010d01H
	DD	0a20dH
xdata	ENDS
;	COMDAT xdata
xdata	SEGMENT
$unwind$?json_get_key_size@@YAHPEAUjson_parse_state_s@@@Z DD 010901H
	DD	0a209H
xdata	ENDS
;	COMDAT xdata
xdata	SEGMENT
$unwind$?is_valid_unquoted_key_char@@YAHD@Z DD 010801H
	DD	02208H
xdata	ENDS
;	COMDAT xdata
xdata	SEGMENT
$unwind$?json_get_string_size@@YAHPEAUjson_parse_state_s@@_K@Z DD 010e01H
	DD	0e20eH
xdata	ENDS
;	COMDAT xdata
xdata	SEGMENT
$unwind$?json_get_value_size@@YAHPEAUjson_parse_state_s@@H@Z DD 010d01H
	DD	0a20dH
xdata	ENDS
;	COMDAT xdata
xdata	SEGMENT
$unwind$?json_skip_all_skippables@@YAHPEAUjson_parse_state_s@@@Z DD 010901H
	DD	06209H
xdata	ENDS
;	COMDAT xdata
xdata	SEGMENT
$unwind$?json_skip_c_style_comments@@YAHPEAUjson_parse_state_s@@@Z DD 010901H
	DD	02209H
xdata	ENDS
;	COMDAT xdata
xdata	SEGMENT
$unwind$?json_skip_whitespace@@YAHPEAUjson_parse_state_s@@@Z DD 010901H
	DD	04209H
xdata	ENDS
;	COMDAT xdata
xdata	SEGMENT
$unwind$?json_hexadecimal_value@@YAHPEBDKPEAK@Z DD 011201H
	DD	06212H
xdata	ENDS
;	COMDAT xdata
xdata	SEGMENT
$unwind$json_parse_ex DD 021b01H
	DD	017011bH
xdata	ENDS
;	COMDAT xdata
xdata	SEGMENT
$unwind$json_parse DD 010e01H
	DD	0620eH
xdata	ENDS
voltbl	SEGMENT
_volmd	DD	0ffffffffH
	DDSymXIndex: 	FLAT:?GameUpdateAndRender@@YAHW4window_flags@@Uwindow_dimension@@PEAUgame_memory@@PEAUgame_input@@M@Z
	DD	026H
	DD	01fb8H
_volmd	DD	0ffffffffH
	DDSymXIndex: 	FLAT:?CreateEntity@@YAPEAUentity@@PEAU1@HUpoint_light@@W4model_asset_id@@Tv3@@33P6AX0M@ZP6AX00@Z@Z
	DD	026H
	DD	01a0H
_volmd	DD	0ffffffffH
	DDSymXIndex: 	FLAT:?LoadFont@@YA?AUfont@@PEA_WPEAUmemory_arena@@M@Z
	DD	02eH
	DD	024fH
_volmd	DD	0ffffffffH
	DDSymXIndex: 	FLAT:?CreateImage@@YA?AUloaded_image@@PEADPEAUmemory_arena@@@Z
	DD	01fH
	DD	0abH
_volmd	DD	0ffffffffH
	DDSymXIndex: 	FLAT:?RenderEntity@@YAXPEAUentity@@0PEAX1Upoint_light@@PEATmat4@@3@Z
	DD	027H
	DD	0708H
_volmd	DD	0ffffffffH
	DDSymXIndex: 	FLAT:?CalculateTransform@@YAXPEATmat4@@Tv3@@11@Z
	DD	027H
	DD	01b8H
_volmd	DD	0ffffffffH
	DDSymXIndex: 	FLAT:?LoadGLTF@@YA?AUloaded_model@@PEADPEAUmemory_arena@@@Z
	DD	022H
	DD	0157fH
_volmd	DD	0ffffffffH
	DDSymXIndex: 	FLAT:?RunPlayer@@YAXPEAUentity@@M@Z
	DD	01eH
	DD	0730H
_volmd	DD	0ffffffffH
	DDSymXIndex: 	FLAT:?stbtt__compute_crossings_x@@YAHMMHPEAUstbtt_vertex@@@Z
	DD	027H
	DD	08fdH
_volmd	DD	0ffffffffH
	DDSymXIndex: 	FLAT:?stbtt__v_prefilter@@YAXPEAEHHHI@Z
	DD	022H
	DD	04b2H
_volmd	DD	0ffffffffH
	DDSymXIndex: 	FLAT:?stbtt__h_prefilter@@YAXPEAEHHHI@Z
	DD	022H
	DD	0437H
_volmd	DD	0ffffffffH
	DDSymXIndex: 	FLAT:?stbtt__sort_edges_quicksort@@YAXPEAUstbtt__edge@@H@Z
	DD	01cH
	DD	0440H
_volmd	DD	0ffffffffH
	DDSymXIndex: 	FLAT:?stbtt__sort_edges_ins_sort@@YAXPEAUstbtt__edge@@H@Z
	DD	019H
	DD	0140H
_volmd	DD	0ffffffffH
	DDSymXIndex: 	FLAT:?stbtt__rasterize_sorted_edges@@YAXPEAUstbtt__bitmap@@PEAUstbtt__edge@@HHHHPEAX@Z
	DD	026H
	DD	0500H
_volmd	DD	0ffffffffH
	DDSymXIndex: 	FLAT:?stbtt__run_charstring@@YAHPEBUstbtt_fontinfo@@HPEAUstbtt__csctx@@@Z
	DD	021H
	DD	01363H
_volmd	DD	0ffffffffH
	DDSymXIndex: 	FLAT:?stbtt__GetGlyphShapeTT@@YAHPEBUstbtt_fontinfo@@HPEAPEAUstbtt_vertex@@@Z
	DD	021H
	DD	01361H
_volmd	DD	0ffffffffH
	DDSymXIndex: 	FLAT:?stbi__pic_load_core@@YAPEAEPEAUstbi__context@@HHPEAHPEAE@Z
	DD	024H
	DD	0621H
_volmd	DD	0ffffffffH
	DDSymXIndex: 	FLAT:?stbi__parse_png_file@@YAHPEAUstbi__png@@HH@Z
	DD	020H
	DD	0d49H
_volmd	DD	0ffffffffH
	DDSymXIndex: 	FLAT:?stbi__create_png_image@@YAHPEAUstbi__png@@PEAEIHHHH@Z
	DD	027H
	DD	04d2H
_volmd	DD	0ffffffffH
	DDSymXIndex: 	FLAT:?stbi__compute_huffman_codes@@YAHPEAUstbi__zbuf@@@Z
	DD	017H
	DD	02f9H
_volmd	DD	0ffffffffH
	DDSymXIndex: 	FLAT:?stbi__zbuild_huffman@@YAHPEAUstbi__zhuffman@@PEBEH@Z
	DD	021H
	DD	0369H
_volmd	DD	0ffffffffH
	DDSymXIndex: 	FLAT:?load_jpeg_image@@YAPEAEPEAUstbi__jpeg@@PEAH11H@Z
	DD	025H
	DD	0118aH
_volmd	DD	0ffffffffH
	DDSymXIndex: 	FLAT:?stbi__process_marker@@YAHPEAUstbi__jpeg@@H@Z
	DD	01aH
	DD	069cH
_volmd	DD	0ffffffffH
	DDSymXIndex: 	FLAT:?stbi__parse_entropy_coded_data@@YAHPEAUstbi__jpeg@@@Z
	DD	016H
	DD	0c3cH
_volmd	DD	0ffffffffH
	DDSymXIndex: 	FLAT:?stbi__idct_block@@YAXPEAEHQEAF@Z
	DD	01fH
	DD	0a83H
_volmd	DD	0ffffffffH
	DDSymXIndex: 	FLAT:?stbi__loadf_main@@YAPEAMPEAUstbi__context@@PEAH11H@Z
	DD	022H
	DD	0150H
_volmd	DD	0ffffffffH
	DDSymXIndex: 	FLAT:?stbi__load_and_postprocess_16bit@@YAPEAGPEAUstbi__context@@PEAH11H@Z
	DD	025H
	DD	01a6H
_volmd	DD	0ffffffffH
	DDSymXIndex: 	FLAT:?stbi__load_and_postprocess_8bit@@YAPEAEPEAUstbi__context@@PEAH11H@Z
	DD	025H
	DD	01a0H
_volmd	DD	0ffffffffH
	DDSymXIndex: 	FLAT:?stbi__vertical_flip@@YAXPEAXHHH@Z
	DD	026H
	DD	017bH
_volmd	DD	0ffffffffH
	DDSymXIndex: 	FLAT:?stbi__load_gif_main@@YAPEAXPEAUstbi__context@@PEAPEAHPEAH222H@Z
	DD	02dH
	DD	03d6H
_volmd	DD	0ffffffffH
	DDSymXIndex: 	FLAT:?stbi__gif_load@@YAPEAXPEAUstbi__context@@PEAH11HPEAUstbi__result_info@@@Z
	DD	02cH
	DD	0124H
_volmd	DD	0ffffffffH
	DDSymXIndex: 	FLAT:?stbi__pic_info@@YAHPEAUstbi__context@@PEAH11@Z
	DD	022H
	DD	0270H
_volmd	DD	0ffffffffH
	DDSymXIndex: 	FLAT:?stbi__hdr_info@@YAHPEAUstbi__context@@PEAH11@Z
	DD	025H
	DD	0219H
_volmd	DD	0ffffffffH
	DDSymXIndex: 	FLAT:?stbi__hdr_load@@YAPEAMPEAUstbi__context@@PEAH11HPEAUstbi__result_info@@@Z
	DD	025H
	DD	093dH
_volmd	DD	0ffffffffH
	DDSymXIndex: 	FLAT:?stbi__bmp_info@@YAHPEAUstbi__context@@PEAH11@Z
	DD	022H
	DD	0e7H
_volmd	DD	0ffffffffH
	DDSymXIndex: 	FLAT:?stbi__bmp_load@@YAPEAXPEAUstbi__context@@PEAH11HPEAUstbi__result_info@@@Z
	DD	025H
	DD	011afH
_volmd	DD	0ffffffffH
	DDSymXIndex: 	FLAT:?stbi__cpuid3@@YAHXZ
	DD	010H
	DD	03dH
_volmd	DD	0ffffffffH
	DDSymXIndex: 	FLAT:stbi_zlib_decode_noheader_buffer
	DD	02aH
	DD	09cH
_volmd	DD	0ffffffffH
	DDSymXIndex: 	FLAT:stbi_zlib_decode_noheader_malloc
	DD	025H
	DD	0d4H
_volmd	DD	0ffffffffH
	DDSymXIndex: 	FLAT:stbi_zlib_decode_buffer
	DD	02aH
	DD	09cH
_volmd	DD	0ffffffffH
	DDSymXIndex: 	FLAT:stbi_zlib_decode_malloc_guesssize_headerflag
	DD	02aH
	DD	0e4H
_volmd	DD	0ffffffffH
	DDSymXIndex: 	FLAT:stbi_zlib_decode_malloc_guesssize
	DD	02aH
	DD	0e1H
_volmd	DD	0ffffffffH
	DDSymXIndex: 	FLAT:stbi_is_16_bit_from_file
	DD	016H
	DD	067H
_volmd	DD	0ffffffffH
	DDSymXIndex: 	FLAT:stbi_info_from_file
	DD	025H
	DD	08eH
_volmd	DD	0ffffffffH
	DDSymXIndex: 	FLAT:stbi_is_16_bit_from_callbacks
	DD	01bH
	DD	047H
_volmd	DD	0ffffffffH
	DDSymXIndex: 	FLAT:stbi_is_16_bit_from_memory
	DD	01aH
	DD	046H
_volmd	DD	0ffffffffH
	DDSymXIndex: 	FLAT:stbi_info_from_callbacks
	DD	025H
	DD	069H
_volmd	DD	0ffffffffH
	DDSymXIndex: 	FLAT:stbi_info_from_memory
	DD	024H
	DD	068H
_volmd	DD	0ffffffffH
	DDSymXIndex: 	FLAT:stbi_is_hdr_from_file
	DD	016H
	DD	067H
_volmd	DD	0ffffffffH
	DDSymXIndex: 	FLAT:stbi_is_hdr_from_memory
	DD	01aH
	DD	046H
_volmd	DD	0ffffffffH
	DDSymXIndex: 	FLAT:stbi_is_hdr_from_callbacks
	DD	01bH
	DD	047H
_volmd	DD	0ffffffffH
	DDSymXIndex: 	FLAT:stbi_loadf_from_file
	DD	025H
	DD	06cH
_volmd	DD	0ffffffffH
	DDSymXIndex: 	FLAT:stbi_loadf_from_callbacks
	DD	025H
	DD	074H
_volmd	DD	0ffffffffH
	DDSymXIndex: 	FLAT:stbi_loadf_from_memory
	DD	024H
	DD	073H
_volmd	DD	0ffffffffH
	DDSymXIndex: 	FLAT:stbi_load_from_file_16
	DD	025H
	DD	0abH
_volmd	DD	0ffffffffH
	DDSymXIndex: 	FLAT:stbi_load_16_from_callbacks
	DD	025H
	DD	074H
_volmd	DD	0ffffffffH
	DDSymXIndex: 	FLAT:stbi_load_16_from_memory
	DD	024H
	DD	073H
_volmd	DD	0ffffffffH
	DDSymXIndex: 	FLAT:stbi_load_gif_from_memory
	DD	024H
	DD	0123H
_volmd	DD	0ffffffffH
	DDSymXIndex: 	FLAT:stbi_load_from_file
	DD	025H
	DD	0abH
_volmd	DD	0ffffffffH
	DDSymXIndex: 	FLAT:stbi_load_from_callbacks
	DD	025H
	DD	074H
_volmd	DD	0ffffffffH
	DDSymXIndex: 	FLAT:stbi_load_from_memory
	DD	024H
	DD	073H
_volmd	DD	0ffffffffH
	DDSymXIndex: 	FLAT:?UIToggle@@YAHTv2@@0MPEADPEAUfont@@Tv4@@3PEATmat4@@MHHH@Z
	DD	028H
	DD	06eaH
_volmd	DD	0ffffffffH
	DDSymXIndex: 	FLAT:?UIString@@YAHTv2@@PEADPEAUfont@@Tv4@@PEATmat4@@MHHPEAM@Z
	DD	027H
	DD	0670H
_volmd	DD	0ffffffffH
	DDSymXIndex: 	FLAT:?UIImage@@YAHUloaded_image@@Tv2@@1Tv4@@PEATmat4@@MHHHPEAX@Z
	DD	027H
	DD	0a7eH
_volmd	DD	0ffffffffH
	DDSymXIndex: 	FLAT:?RenderBox@@YAXTv2@@0Tv4@@MPEATmat4@@M@Z
	DD	028H
	DD	02ebH
_volmd	DD	0ffffffffH
	DDSymXIndex: 	FLAT:?RenderLine@@YAXTv4@@Tv2@@1PEATmat4@@M@Z
	DD	027H
	DD	033dH
_volmd	DD	0ffffffffH
	DDSymXIndex: 	FLAT:?GetCameraView@@YAXPEAUcamera@@PEATmat4@@@Z
	DD	01dH
	DD	0e8H
_volmd	DD	0ffffffffH
	DDSymXIndex: 	FLAT:stbtt_GetGlyphSDF
	DD	026H
	DD	01938H
_volmd	DD	0ffffffffH
	DDSymXIndex: 	FLAT:?Mat4LookAt@@YAXPEATmat4@@Tv3@@11@Z
	DD	027H
	DD	057bH
_volmd	DD	0ffffffffH
	DDSymXIndex: 	FLAT:?CreateOrthographic@@YAXPEATmat4@@MMMMMM@Z
	DD	02aH
	DD	021aH
_volmd	DD	0ffffffffH
	DDSymXIndex: 	FLAT:?CreatePerspective@@YAXPEATmat4@@MMMM@Z
	DD	02aH
	DD	01b7H
_volmd	DD	0ffffffffH
	DDSymXIndex: 	FLAT:?ScaleMat4@@YAXPEATmat4@@Tv3@@@Z
	DD	01dH
	DD	0198H
_volmd	DD	0ffffffffH
	DDSymXIndex: 	FLAT:?RotateMat4@@YAXPEATmat4@@MTv3@@@Z
	DD	023H
	DD	0cf0H
_volmd	DD	0ffffffffH
	DDSymXIndex: 	FLAT:?TranslateMat4@@YAXPEATmat4@@Tv3@@@Z
	DD	01dH
	DD	033dH
_volmd	DD	0ffffffffH
	DDSymXIndex: 	FLAT:??D@YA?ATv4@@Tmat4@@T0@@Z
	DD	01fH
	DD	033fH
_volmd	DD	0ffffffffH
	DDSymXIndex: 	FLAT:??D@YA?ATmat4@@T0@0@Z
	DD	01fH
	DD	0139bH
_volmd	DD	0ffffffffH
	DDSymXIndex: 	FLAT:?Mat4Inverse@@YAXPEATmat4@@0@Z
	DD	018H
	DD	014c5H
_volmd	DD	0ffffffffH
	DDSymXIndex: 	FLAT:?Mat4Transpose@@YAXPEATmat4@@0@Z
	DD	01aH
	DD	01cdH
_volmd	DD	0ffffffffH
	DDSymXIndex: 	FLAT:?Mat4Identity@@YA?ATmat4@@XZ
	DD	015H
	DD	0d5H
_volmd	DD	0ffffffffH
	DDSymXIndex: 	FLAT:?Mat3FromMat4@@YA?ATmat3@@PEATmat4@@@Z
	DD	01aH
	DD	011dH
_volmd	DD	0ffffffffH
	DDSymXIndex: 	FLAT:??X@YAAEATv4@@AEAT0@T0@@Z
	DD	01aH
	DD	092H
_volmd	DD	0ffffffffH
	DDSymXIndex: 	FLAT:??D@YA?ATv4@@T0@M@Z
	DD	020H
	DD	093H
_volmd	DD	0ffffffffH
	DDSymXIndex: 	FLAT:??D@YA?ATv4@@T0@0@Z
	DD	01fH
	DD	0a1H
_volmd	DD	0ffffffffH
	DDSymXIndex: 	FLAT:??H@YA?ATv4@@T0@0@Z
	DD	01fH
	DD	0a1H
_volmd	DD	0ffffffffH
	DDSymXIndex: 	FLAT:?V4@@YA?ATv4@@Tv3@@M@Z
	DD	020H
	DD	077H
_volmd	DD	0ffffffffH
	DDSymXIndex: 	FLAT:?V4@@YA?ATv4@@MMMM@Z
	DD	027H
	DD	073H
_volmd	DD	0ffffffffH
	DDSymXIndex: 	FLAT:?V3EulerToRotation@@YA?ATv3@@T1@@Z
	DD	01dH
	DD	014dH
_volmd	DD	0ffffffffH
	DDSymXIndex: 	FLAT:?V3Normalize@@YA?ATv3@@T1@@Z
	DD	01dH
	DD	0cfH
_volmd	DD	0ffffffffH
	DDSymXIndex: 	FLAT:??D@YA?ATv3@@T0@M@Z
	DD	020H
	DD	07dH
_volmd	DD	0ffffffffH
	DDSymXIndex: 	FLAT:??X@YAAEATv3@@AEAT0@T0@@Z
	DD	01aH
	DD	092H
_volmd	DD	0ffffffffH
	DDSymXIndex: 	FLAT:??D@YA?ATv3@@T0@0@Z
	DD	01fH
	DD	087H
_volmd	DD	0ffffffffH
	DDSymXIndex: 	FLAT:??G@YA?ATv3@@T0@0@Z
	DD	01fH
	DD	087H
_volmd	DD	0ffffffffH
	DDSymXIndex: 	FLAT:??Y@YAAEATv3@@AEAT0@T0@@Z
	DD	01aH
	DD	092H
_volmd	DD	0ffffffffH
	DDSymXIndex: 	FLAT:??H@YA?ATv3@@T0@0@Z
	DD	01fH
	DD	087H
_volmd	DD	0ffffffffH
	DDSymXIndex: 	FLAT:?V3@@YA?ATv3@@Tv4@@@Z
	DD	01aH
	DD	065H
_volmd	DD	0ffffffffH
	DDSymXIndex: 	FLAT:?V3@@YA?ATv3@@Tv2@@M@Z
	DD	020H
	DD	060H
_volmd	DD	0ffffffffH
	DDSymXIndex: 	FLAT:?V3@@YA?ATv3@@MMM@Z
	DD	027H
	DD	067H
_volmd	DD	0ffffffffH
	DDSymXIndex: 	FLAT:?V3Cross@@YA?ATv3@@T1@0@Z
	DD	01fH
	DD	0cdH
_volmd	DD	0ffffffffH
	DDSymXIndex: 	FLAT:?V2Normalize@@YA?ATv2@@T1@@Z
	DD	013H
	DD	07aH
_volmd	DD	0ffffffffH
	DDSymXIndex: 	FLAT:??K@YA?ATv2@@T0@M@Z
	DD	019H
	DD	045H
_volmd	DD	0ffffffffH
	DDSymXIndex: 	FLAT:??X@YAAEATv2@@AEAT0@M@Z
	DD	019H
	DD	048H
_volmd	DD	0ffffffffH
	DDSymXIndex: 	FLAT:??D@YA?ATv2@@T0@M@Z
	DD	019H
	DD	045H
_volmd	DD	0ffffffffH
	DDSymXIndex: 	FLAT:??D@YA?ATv2@@T0@0@Z
	DD	018H
	DD	044H
_volmd	DD	0ffffffffH
	DDSymXIndex: 	FLAT:??H@YA?ATv2@@T0@0@Z
	DD	018H
	DD	044H
_volmd	DD	0ffffffffH
	DDSymXIndex: 	FLAT:?V2@@YA?ATv2@@HH@Z
	DD	016H
	DD	036H
_volmd	DD	0ffffffffH
	DDSymXIndex: 	FLAT:?V2@@YA?ATv2@@MM@Z
	DD	01aH
	DD	03aH
voltbl	ENDS
xdata	SEGMENT
$unwind$PushSize DD 010e01H
	DD	0220eH
$unwind$?Sin@@YAMM@Z DD 010a01H
	DD	0420aH
$unwind$?Cos@@YAMM@Z DD 010a01H
	DD	0420aH
$unwind$?Tan@@YAMM@Z DD 010a01H
	DD	0420aH
$unwind$?Sqrt@@YAMM@Z DD 010a01H
	DD	0420aH
$unwind$?V2@@YA?ATv2@@MM@Z DD 011f19H
	DD	02210H
	DD	imagerel __GSHandlerCheck
	DD	08H
$unwind$?V2@@YA?ATv2@@HH@Z DD 011b19H
	DD	0220cH
	DD	imagerel __GSHandlerCheck
	DD	08H
$unwind$??H@YA?ATv2@@T0@0@Z DD 011d19H
	DD	0220eH
	DD	imagerel __GSHandlerCheck
	DD	08H
$unwind$??D@YA?ATv2@@T0@0@Z DD 011d19H
	DD	0220eH
	DD	imagerel __GSHandlerCheck
	DD	08H
$unwind$??D@YA?ATv2@@T0@M@Z DD 011e19H
	DD	0220fH
	DD	imagerel __GSHandlerCheck
	DD	08H
$unwind$??X@YAAEATv2@@AEAT0@M@Z DD 011e19H
	DD	0620fH
	DD	imagerel __GSHandlerCheck
	DD	028H
$unwind$??K@YA?ATv2@@T0@M@Z DD 011e19H
	DD	0220fH
	DD	imagerel __GSHandlerCheck
	DD	08H
$unwind$?V2MultiplyDot@@YAMTv2@@0@Z DD 010e01H
	DD	0220eH
$unwind$?V2Length@@YAMTv2@@@Z DD 010901H
	DD	06209H
$unwind$?V2Normalize@@YA?ATv2@@T1@@Z DD 011819H
	DD	08209H
	DD	imagerel __GSHandlerCheck
	DD	038H
$unwind$?V3Cross@@YA?ATv3@@T1@0@Z DD 032419H
	DD	070114215H
	DD	06010H
	DD	imagerel __GSHandlerCheck
	DD	010H
$unwind$?V3@@YA?ATv3@@MMM@Z DD 032c19H
	DD	07019421dH
	DD	06018H
	DD	imagerel __GSHandlerCheck
	DD	010H
$unwind$?V3@@YA?ATv3@@Tv2@@M@Z DD 032519H
	DD	070124216H
	DD	06011H
	DD	imagerel __GSHandlerCheck
	DD	010H
$unwind$?V3@@YA?ATv3@@Tv4@@@Z DD 031f19H
	DD	0700c4210H
	DD	0600bH
	DD	imagerel __GSHandlerCheck
	DD	010H
$unwind$??H@YA?ATv3@@T0@0@Z DD 032419H
	DD	070114215H
	DD	06010H
	DD	imagerel __GSHandlerCheck
	DD	010H
$unwind$??Y@YAAEATv3@@AEAT0@T0@@Z DD 031f19H
	DD	0700ce210H
	DD	0600bH
	DD	imagerel __GSHandlerCheck
	DD	060H
$unwind$??G@YA?ATv3@@T0@0@Z DD 032419H
	DD	070114215H
	DD	06010H
	DD	imagerel __GSHandlerCheck
	DD	010H
$unwind$??D@YA?ATv3@@T0@0@Z DD 032419H
	DD	070114215H
	DD	06010H
	DD	imagerel __GSHandlerCheck
	DD	010H
$unwind$??X@YAAEATv3@@AEAT0@T0@@Z DD 031f19H
	DD	0700ce210H
	DD	0600bH
	DD	imagerel __GSHandlerCheck
	DD	060H
$unwind$??D@YA?ATv3@@T0@M@Z DD 032519H
	DD	070124216H
	DD	06011H
	DD	imagerel __GSHandlerCheck
	DD	010H
$unwind$?V3MultiplyDot@@YAMTv3@@0@Z DD 010e01H
	DD	0220eH
$unwind$?V3Length@@YAMTv3@@@Z DD 030b01H
	DD	07007820bH
	DD	06006H
$unwind$?V3Normalize@@YA?ATv3@@T1@@Z DD 042519H
	DD	0130113H
	DD	0600b700cH
	DD	imagerel __GSHandlerCheck
	DD	080H
$unwind$?V3EulerToRotation@@YA?ATv3@@T1@@Z DD 042219H
	DD	0110113H
	DD	0600b700cH
	DD	imagerel __GSHandlerCheck
	DD	070H
$unwind$?V4@@YA?ATv4@@MMMM@Z DD 032c19H
	DD	07019421dH
	DD	06018H
	DD	imagerel __GSHandlerCheck
	DD	010H
$unwind$?V4@@YA?ATv4@@Tv3@@M@Z DD 032519H
	DD	070124216H
	DD	06011H
	DD	imagerel __GSHandlerCheck
	DD	010H
$unwind$??H@YA?ATv4@@T0@0@Z DD 032419H
	DD	070114215H
	DD	06010H
	DD	imagerel __GSHandlerCheck
	DD	010H
$unwind$??D@YA?ATv4@@T0@0@Z DD 032419H
	DD	070114215H
	DD	06010H
	DD	imagerel __GSHandlerCheck
	DD	010H
$unwind$??D@YA?ATv4@@T0@M@Z DD 032519H
	DD	070124216H
	DD	06011H
	DD	imagerel __GSHandlerCheck
	DD	010H
$unwind$??X@YAAEATv4@@AEAT0@T0@@Z DD 031f19H
	DD	0700ce210H
	DD	0600bH
	DD	imagerel __GSHandlerCheck
	DD	060H
$unwind$?Mat3FromMat4@@YA?ATmat3@@PEATmat4@@@Z DD 031f19H
	DD	0700c6210H
	DD	0600bH
	DD	imagerel __GSHandlerCheck
	DD	028H
$unwind$?Mat4Identity@@YA?ATmat4@@XZ DD 031a19H
	DD	07007a20bH
	DD	06006H
	DD	imagerel __GSHandlerCheck
	DD	040H
$unwind$?Mat4Transpose@@YAXPEATmat4@@0@Z DD 031f19H
	DD	0700ca210H
	DD	0600bH
	DD	imagerel __GSHandlerCheck
	DD	040H
$unwind$?Mat4Inverse@@YAXPEATmat4@@0@Z DD 011d19H
	DD	0820eH
	DD	imagerel __GSHandlerCheck
	DD	038H
$unwind$??D@YA?ATmat4@@T0@0@Z DD 032419H
	DD	07011a215H
	DD	06010H
	DD	imagerel __GSHandlerCheck
	DD	040H
$unwind$??D@YA?ATv4@@Tmat4@@T0@@Z DD 032419H
	DD	070114215H
	DD	06010H
	DD	imagerel __GSHandlerCheck
	DD	010H
$unwind$?TranslateMat4@@YAXPEATmat4@@Tv3@@@Z DD 042519H
	DD	0390113H
	DD	0600b700cH
	DD	imagerel __GSHandlerCheck
	DD	01b0H
$unwind$?RotateMat4@@YAXPEATmat4@@MTv3@@@Z DD 042b19H
	DD	09d0119H
	DD	060117012H
	DD	imagerel __GSHandlerCheck
	DD	04d0H
$unwind$?ScaleMat4@@YAXPEATmat4@@Tv3@@@Z DD 042519H
	DD	0190113H
	DD	0600b700cH
	DD	imagerel __GSHandlerCheck
	DD	0b0H
$unwind$?CreatePerspective@@YAXPEATmat4@@MMMM@Z DD 042f19H
	DD	0110120H
	DD	060187019H
	DD	imagerel __GSHandlerCheck
	DD	070H
$unwind$?CreateOrthographic@@YAXPEATmat4@@MMMMMM@Z DD 043219H
	DD	01f0120H
	DD	060187019H
	DD	imagerel __GSHandlerCheck
	DD	0e0H
$unwind$?Mat4LookAt@@YAXPEATmat4@@Tv3@@11@Z DD 042f19H
	DD	04d011dH
	DD	060157016H
	DD	imagerel __GSHandlerCheck
	DD	0250H
$unwind$??U@YA?AW4ui_type@@W40@0@Z DD 010c01H
	DD	0220cH
$unwind$stbtt_BakeFontBitmap DD 011801H
	DD	0a218H
$unwind$stbtt_GetBakedQuad DD 011701H
	DD	08217H
$unwind$stbtt_GetScaledFontVMetrics DD 021b01H
	DD	01d011bH
$unwind$stbtt_PackBegin DD 021901H
	DD	070159219H
$unwind$stbtt_PackEnd DD 010901H
	DD	04209H
$unwind$stbtt_PackFontRange DD 011901H
	DD	0c219H
$unwind$stbtt_PackFontRanges DD 021b01H
	DD	01f011bH
$unwind$stbtt_PackSetOversampling DD 011201H
	DD	04212H
$unwind$stbtt_GetPackedQuad DD 011701H
	DD	08217H
$unwind$stbtt_PackFontRangesGatherRects DD 021b01H
	DD	013011bH
$unwind$stbtt_PackFontRangesPackRects DD 011301H
	DD	04213H
$unwind$stbtt_PackFontRangesRenderIntoRects DD 041d01H
	DD	01b011dH
	DD	060157016H
$unwind$stbtt_GetNumberOfFonts DD 010901H
	DD	04209H
$unwind$stbtt_GetFontOffsetForIndex DD 010d01H
	DD	0420dH
$unwind$stbtt_InitFont DD 011301H
	DD	04213H
$unwind$stbtt_FindGlyphIndex DD 021001H
	DD	0130110H
$unwind$stbtt_ScaleForPixelHeight DD 010f01H
	DD	0620fH
$unwind$stbtt_ScaleForMappingEmToPixels DD 010f01H
	DD	0620fH
$unwind$stbtt_GetFontVMetrics DD 011801H
	DD	04218H
$unwind$stbtt_GetFontVMetricsOS2 DD 011801H
	DD	06218H
$unwind$stbtt_GetFontBoundingBox DD 011801H
	DD	04218H
$unwind$stbtt_GetCodepointHMetrics DD 011701H
	DD	04217H
$unwind$stbtt_GetCodepointKernAdvance DD 011201H
	DD	06212H
$unwind$stbtt_GetCodepointBox DD 011701H
	DD	06217H
$unwind$stbtt_GetGlyphHMetrics DD 011701H
	DD	06217H
$unwind$stbtt_GetGlyphKernAdvance DD 011201H
	DD	06212H
$unwind$stbtt_GetGlyphBox DD 011701H
	DD	08217H
$unwind$stbtt_GetKerningTableLength DD 010901H
	DD	06209H
$unwind$stbtt_GetKerningTable DD 011301H
	DD	06213H
$unwind$stbtt_IsGlyphEmpty DD 010d01H
	DD	0820dH
$unwind$stbtt_GetCodepointShape DD 011201H
	DD	04212H
$unwind$stbtt_GetGlyphShape DD 011201H
	DD	04212H
$unwind$stbtt_FreeShape DD 010e01H
	DD	0420eH
$unwind$stbtt_FindSVGDoc DD 010d01H
	DD	0a20dH
$unwind$stbtt_GetCodepointSVG DD 011201H
	DD	04212H
$unwind$stbtt_GetGlyphSVG DD 011201H
	DD	08212H
$unwind$stbtt_FreeBitmap DD 010e01H
	DD	0420eH
$unwind$stbtt_GetCodepointBitmap DD 011a01H
	DD	0a21aH
$unwind$stbtt_GetCodepointBitmapSubpixel DD 011b01H
	DD	0a21bH
$unwind$stbtt_MakeCodepointBitmap DD 011801H
	DD	0a218H
$unwind$stbtt_MakeCodepointBitmapSubpixel DD 011801H
	DD	0a218H
$unwind$stbtt_MakeCodepointBitmapSubpixelPrefilter DD 011801H
	DD	0e218H
$unwind$stbtt_GetCodepointBitmapBox DD 011901H
	DD	0a219H
$unwind$stbtt_GetCodepointBitmapBoxSubpixel DD 011901H
	DD	0a219H
$unwind$stbtt_GetGlyphBitmap DD 011a01H
	DD	0a21aH
$unwind$stbtt_GetGlyphBitmapSubpixel DD 021e01H
	DD	015011eH
$unwind$stbtt_MakeGlyphBitmap DD 011801H
	DD	0a218H
$unwind$stbtt_MakeGlyphBitmapSubpixel DD 021b01H
	DD	013011bH
$unwind$stbtt_MakeGlyphBitmapSubpixelPrefilter DD 011801H
	DD	0a218H
$unwind$stbtt_GetGlyphBitmapBox DD 011901H
	DD	0a219H
$unwind$stbtt_GetGlyphBitmapBoxSubpixel DD 011901H
	DD	08219H
$unwind$stbtt_Rasterize DD 021c01H
	DD	011011cH
$unwind$stbtt_FreeSDF DD 010e01H
	DD	0420eH
$unwind$stbtt_GetGlyphSDF DD 022e19H
	DD	03f011cH
	DD	imagerel __GSHandlerCheck
	DD	01e0H
$unwind$stbtt_GetCodepointSDF DD 011901H
	DD	0a219H
$unwind$stbtt_FindMatchingFont DD 011301H
	DD	04213H
$unwind$stbtt_CompareUTF8toUTF16_bigendian DD 011701H
	DD	04217H
$unwind$stbtt_GetFontNameString DD 011801H
	DD	0a218H
$unwind$?StringLength@@YAHPEAD@Z DD 010901H
	DD	02209H
$unwind$?CreateString@@YA?AUstring8@@PEAD@Z DD 031001H
	DD	0700c6210H
	DD	0600bH
$unwind$?StringConcat@@YAXPEAUstring8@@U1@@Z DD 010e01H
	DD	0220eH
$unwind$?CompareStringBinary@@YAHUstring8@@0@Z DD 010e01H
	DD	0220eH
$unwind$?GetPathNoFileName@@YAXPEAUstring8@@U1@@Z DD 010e01H
	DD	0620eH
$unwind$?InitializeCamera@@YAXPEAUcamera@@Tv3@@11MMM@Z DD 021601H
	DD	060157016H
$unwind$?GetCameraView@@YAXPEAUcamera@@PEATmat4@@@Z DD 042519H
	DD	0150113H
	DD	0600b700cH
	DD	imagerel __GSHandlerCheck
	DD	090H
$unwind$?RenderLine@@YAXTv4@@Tv2@@1PEATmat4@@M@Z DD 042f19H
	DD	065011dH
	DD	060157016H
	DD	imagerel __GSHandlerCheck
	DD	0310H
$unwind$?RenderBox@@YAXTv2@@0Tv4@@MPEATmat4@@M@Z DD 043019H
	DD	019011eH
	DD	060167017H
	DD	imagerel __GSHandlerCheck
	DD	0b0H
$unwind$?UIImage@@YAHUloaded_image@@Tv2@@1Tv4@@PEATmat4@@MHHHPEAX@Z DD 042f19H
	DD	0cb011dH
	DD	060157016H
	DD	imagerel __GSHandlerCheck
	DD	0640H
$unwind$?UIString@@YAHTv2@@PEADPEAUfont@@Tv4@@PEATmat4@@MHHPEAM@Z DD 042f19H
	DD	039011dH
	DD	060157016H
	DD	imagerel __GSHandlerCheck
	DD	01b0H
$unwind$?UIToggle@@YAHTv2@@0MPEADPEAUfont@@Tv4@@3PEATmat4@@MHHH@Z DD 043019H
	DD	079011eH
	DD	060167017H
	DD	imagerel __GSHandlerCheck
	DD	03b0H
$unwind$stbi_load_from_memory DD 022c19H
	DD	025011aH
	DD	imagerel __GSHandlerCheck
	DD	0110H
$unwind$stbi_load_from_callbacks DD 022d19H
	DD	025011bH
	DD	imagerel __GSHandlerCheck
	DD	0110H
$unwind$stbi_load DD 011801H
	DD	0a218H
$unwind$stbi_load_from_file DD 022d19H
	DD	027011bH
	DD	imagerel __GSHandlerCheck
	DD	0120H
$unwind$stbi_load_gif_from_memory DD 022c19H
	DD	029011aH
	DD	imagerel __GSHandlerCheck
	DD	0130H
$unwind$stbi_load_16_from_memory DD 022c19H
	DD	025011aH
	DD	imagerel __GSHandlerCheck
	DD	0110H
$unwind$stbi_load_16_from_callbacks DD 022d19H
	DD	025011bH
	DD	imagerel __GSHandlerCheck
	DD	0110H
$unwind$stbi_load_16 DD 011801H
	DD	0a218H
$unwind$stbi_load_from_file_16 DD 022d19H
	DD	027011bH
	DD	imagerel __GSHandlerCheck
	DD	0120H
$unwind$stbi_loadf_from_memory DD 022c19H
	DD	025011aH
	DD	imagerel __GSHandlerCheck
	DD	0110H
$unwind$stbi_loadf_from_callbacks DD 022d19H
	DD	025011bH
	DD	imagerel __GSHandlerCheck
	DD	0110H
$unwind$stbi_loadf DD 011801H
	DD	0a218H
$unwind$stbi_loadf_from_file DD 022d19H
	DD	025011bH
	DD	imagerel __GSHandlerCheck
	DD	0110H
$unwind$stbi_is_hdr_from_callbacks DD 022319H
	DD	0230111H
	DD	imagerel __GSHandlerCheck
	DD	0100H
$unwind$stbi_is_hdr_from_memory DD 022219H
	DD	0230110H
	DD	imagerel __GSHandlerCheck
	DD	0100H
$unwind$stbi_is_hdr DD 010901H
	DD	06209H
$unwind$stbi_is_hdr_from_file DD 021e19H
	DD	025010cH
	DD	imagerel __GSHandlerCheck
	DD	0110H
$unwind$stbi_image_free DD 010901H
	DD	04209H
$unwind$stbi_info_from_memory DD 022c19H
	DD	023011aH
	DD	imagerel __GSHandlerCheck
	DD	0100H
$unwind$stbi_info_from_callbacks DD 022d19H
	DD	023011bH
	DD	imagerel __GSHandlerCheck
	DD	0100H
$unwind$stbi_is_16_bit_from_memory DD 022219H
	DD	0230110H
	DD	imagerel __GSHandlerCheck
	DD	0100H
$unwind$stbi_is_16_bit_from_callbacks DD 022319H
	DD	0230111H
	DD	imagerel __GSHandlerCheck
	DD	0100H
$unwind$stbi_info DD 011801H
	DD	06218H
$unwind$stbi_info_from_file DD 022d19H
	DD	025011bH
	DD	imagerel __GSHandlerCheck
	DD	0110H
$unwind$stbi_is_16_bit DD 010901H
	DD	06209H
$unwind$stbi_is_16_bit_from_file DD 021e19H
	DD	025010cH
	DD	imagerel __GSHandlerCheck
	DD	0110H
$unwind$stbi_zlib_decode_malloc_guesssize DD 023219H
	DD	020b0120H
	DD	imagerel __GSHandlerCheck
	DD	01040H
$unwind$stbi_zlib_decode_malloc_guesssize_headerflag DD 023219H
	DD	020b0120H
	DD	imagerel __GSHandlerCheck
	DD	01040H
$unwind$stbi_zlib_decode_malloc DD 011201H
	DD	04212H
$unwind$stbi_zlib_decode_buffer DD 023219H
	DD	02090120H
	DD	imagerel __GSHandlerCheck
	DD	01030H
$unwind$stbi_zlib_decode_noheader_malloc DD 022d19H
	DD	020b011bH
	DD	imagerel __GSHandlerCheck
	DD	01040H
$unwind$stbi_zlib_decode_noheader_buffer DD 023219H
	DD	02090120H
	DD	imagerel __GSHandlerCheck
	DD	01030H
$unwind$?stbi__cpuid3@@YAHXZ DD 021519H
	DD	030023206H
	DD	imagerel __GSHandlerCheck
	DD	010H
$unwind$?stbi__sse2_available@@YAHXZ DD 010401H
	DD	06204H
$unwind$?stbi__refill_buffer@@YAXPEAUstbi__context@@@Z DD 010901H
	DD	06209H
$unwind$?stbi__start_mem@@YAXPEAUstbi__context@@PEBEH@Z DD 011301H
	DD	02213H
$unwind$?stbi__start_callbacks@@YAXPEAUstbi__context@@PEAUstbi_io_callbacks@@PEAX@Z DD 031501H
	DD	070116215H
	DD	06010H
$unwind$?stbi__stdio_read@@YAHPEAXPEADH@Z DD 011301H
	DD	04213H
$unwind$?stbi__stdio_skip@@YAXPEAXH@Z DD 010d01H
	DD	0620dH
$unwind$?stbi__stdio_eof@@YAHPEAX@Z DD 010901H
	DD	06209H
$unwind$?stbi__start_file@@YAXPEAUstbi__context@@PEAU_iobuf@@@Z DD 010e01H
	DD	0420eH
$unwind$?stbi__jpeg_test@@YAHPEAUstbi__context@@@Z DD 010901H
	DD	06209H
$unwind$?stbi__jpeg_load@@YAPEAXPEAUstbi__context@@PEAH11HPEAUstbi__result_info@@@Z DD 011801H
	DD	0a218H
$unwind$?stbi__jpeg_info@@YAHPEAUstbi__context@@PEAH11@Z DD 011801H
	DD	06218H
$unwind$?stbi__png_test@@YAHPEAUstbi__context@@@Z DD 010901H
	DD	06209H
$unwind$?stbi__png_load@@YAPEAXPEAUstbi__context@@PEAH11HPEAUstbi__result_info@@@Z DD 011801H
	DD	0c218H
$unwind$?stbi__png_info@@YAHPEAUstbi__context@@PEAH11@Z DD 011801H
	DD	0a218H
$unwind$?stbi__png_is16@@YAHPEAUstbi__context@@@Z DD 010901H
	DD	0a209H
$unwind$?stbi__bmp_test@@YAHPEAUstbi__context@@@Z DD 010901H
	DD	06209H
$unwind$?stbi__bmp_load@@YAPEAXPEAUstbi__context@@PEAH11HPEAUstbi__result_info@@@Z DD 022d19H
	DD	0ab011bH
	DD	imagerel __GSHandlerCheck
	DD	0540H
$unwind$?stbi__bmp_info@@YAHPEAUstbi__context@@PEAH11@Z DD 012719H
	DD	0c218H
	DD	imagerel __GSHandlerCheck
	DD	058H
$unwind$?stbi__tga_test@@YAHPEAUstbi__context@@@Z DD 010901H
	DD	06209H
$unwind$?stbi__tga_load@@YAPEAXPEAUstbi__context@@PEAH11HPEAUstbi__result_info@@@Z DD 031c01H
	DD	020011cH
	DD	07015H
$unwind$?stbi__tga_info@@YAHPEAUstbi__context@@PEAH11@Z DD 011801H
	DD	0a218H
$unwind$?stbi__psd_test@@YAHPEAUstbi__context@@@Z DD 010901H
	DD	06209H
$unwind$?stbi__psd_load@@YAPEAXPEAUstbi__context@@PEAH11HPEAUstbi__result_info@@H@Z DD 021b01H
	DD	01f011bH
$unwind$?stbi__psd_info@@YAHPEAUstbi__context@@PEAH11@Z DD 011801H
	DD	06218H
$unwind$?stbi__psd_is16@@YAHPEAUstbi__context@@@Z DD 010901H
	DD	06209H
$unwind$?stbi__hdr_test@@YAHPEAUstbi__context@@@Z DD 010901H
	DD	06209H
$unwind$?stbi__hdr_load@@YAPEAMPEAUstbi__context@@PEAH11HPEAUstbi__result_info@@@Z DD 022d19H
	DD	09d011bH
	DD	imagerel __GSHandlerCheck
	DD	04d0H
$unwind$?stbi__hdr_info@@YAHPEAUstbi__context@@PEAH11@Z DD 022d19H
	DD	089011bH
	DD	imagerel __GSHandlerCheck
	DD	0430H
$unwind$?stbi__pic_test@@YAHPEAUstbi__context@@@Z DD 010901H
	DD	06209H
$unwind$?stbi__pic_load@@YAPEAXPEAUstbi__context@@PEAH11HPEAUstbi__result_info@@@Z DD 021901H
	DD	07015d219H
$unwind$?stbi__pic_info@@YAHPEAUstbi__context@@PEAH11@Z DD 012719H
	DD	0e218H
	DD	imagerel __GSHandlerCheck
	DD	060H
$unwind$?stbi__gif_test@@YAHPEAUstbi__context@@@Z DD 010901H
	DD	06209H
$unwind$?stbi__gif_load@@YAPEAXPEAUstbi__context@@PEAH11HPEAUstbi__result_info@@@Z DD 033419H
	DD	011180122H
	DD	07015H
	DD	imagerel __GSHandlerCheck
	DD	088b0H
$unwind$?stbi__load_gif_main@@YAPEAXPEAUstbi__context@@PEAPEAHPEAH222H@Z DD 043519H
	DD	0111f0123H
	DD	060157016H
	DD	imagerel __GSHandlerCheck
	DD	088e0H
$unwind$?stbi__gif_info@@YAHPEAUstbi__context@@PEAH11@Z DD 011801H
	DD	04218H
$unwind$?stbi__pnm_test@@YAHPEAUstbi__context@@@Z DD 010901H
	DD	06209H
$unwind$?stbi__pnm_load@@YAPEAXPEAUstbi__context@@PEAH11HPEAUstbi__result_info@@@Z DD 011801H
	DD	0a218H
$unwind$?stbi__pnm_info@@YAHPEAUstbi__context@@PEAH11@Z DD 011801H
	DD	06218H
$unwind$?stbi__pnm_is16@@YAHPEAUstbi__context@@@Z DD 010901H
	DD	04209H
$unwind$?stbi__malloc@@YAPEAX_K@Z DD 010901H
	DD	04209H
$unwind$?stbi__addsizes_valid@@YAHHH@Z DD 010c01H
	DD	0220cH
$unwind$?stbi__mul2sizes_valid@@YAHHH@Z DD 010c01H
	DD	0220cH
$unwind$?stbi__mad2sizes_valid@@YAHHHH@Z DD 011101H
	DD	06211H
$unwind$?stbi__mad3sizes_valid@@YAHHHHH@Z DD 011601H
	DD	06216H
$unwind$?stbi__mad4sizes_valid@@YAHHHHHH@Z DD 011601H
	DD	06216H
$unwind$?stbi__malloc_mad2@@YAPEAXHHH@Z DD 011101H
	DD	04211H
$unwind$?stbi__malloc_mad3@@YAPEAXHHHH@Z DD 011601H
	DD	04216H
$unwind$?stbi__malloc_mad4@@YAPEAXHHHHH@Z DD 011601H
	DD	06216H
$unwind$?stbi__ldr_to_hdr@@YAPEAMPEAEHHH@Z DD 011701H
	DD	0a217H
$unwind$?stbi__hdr_to_ldr@@YAPEAEPEAMHHH@Z DD 011701H
	DD	08217H
$unwind$?stbi__load_main@@YAPEAXPEAUstbi__context@@PEAH11HPEAUstbi__result_info@@H@Z DD 021901H
	DD	070159219H
$unwind$?stbi__convert_16_to_8@@YAPEAEPEAGHHH@Z DD 011701H
	DD	08217H
$unwind$?stbi__convert_8_to_16@@YAPEAGPEAEHHH@Z DD 011701H
	DD	08217H
$unwind$?stbi__vertical_flip@@YAXPEAXHHH@Z DD 042e19H
	DD	010b011cH
	DD	060147015H
	DD	imagerel __GSHandlerCheck
	DD	0840H
$unwind$?stbi__vertical_flip_slices@@YAXPEAXHHHH@Z DD 011701H
	DD	06217H
$unwind$?stbi__load_and_postprocess_8bit@@YAPEAEPEAUstbi__context@@PEAH11H@Z DD 022a19H
	DD	011011bH
	DD	imagerel __GSHandlerCheck
	DD	070H
$unwind$?stbi__load_and_postprocess_16bit@@YAPEAGPEAUstbi__context@@PEAH11H@Z DD 022a19H
	DD	011011bH
	DD	imagerel __GSHandlerCheck
	DD	070H
$unwind$?stbi__float_postprocess@@YAXPEAMPEAH11H@Z DD 011801H
	DD	06218H
$unwind$?stbi__fopen@@YAPEAU_iobuf@@PEBD0@Z DD 010e01H
	DD	0620eH
$unwind$?stbi__loadf_main@@YAPEAMPEAUstbi__context@@PEAH11H@Z DD 012719H
	DD	0c218H
	DD	imagerel __GSHandlerCheck
	DD	058H
$unwind$?stbi__get8@@YAEPEAUstbi__context@@@Z DD 010901H
	DD	06209H
$unwind$?stbi__at_eof@@YAHPEAUstbi__context@@@Z DD 010901H
	DD	06209H
$unwind$?stbi__skip@@YAXPEAUstbi__context@@H@Z DD 010d01H
	DD	0620dH
$unwind$?stbi__getn@@YAHPEAUstbi__context@@PEAEH@Z DD 031501H
	DD	070116215H
	DD	06010H
$unwind$?stbi__get16be@@YAHPEAUstbi__context@@@Z DD 010901H
	DD	06209H
$unwind$?stbi__get32be@@YAIPEAUstbi__context@@@Z DD 010901H
	DD	06209H
$unwind$?stbi__get16le@@YAHPEAUstbi__context@@@Z DD 010901H
	DD	06209H
$unwind$?stbi__get32le@@YAIPEAUstbi__context@@@Z DD 010901H
	DD	06209H
$unwind$?stbi__convert_format@@YAPEAEPEAEHHII@Z DD 011701H
	DD	0c217H
$unwind$?stbi__convert_format16@@YAPEAGPEAGHHII@Z DD 011701H
	DD	0c217H
$unwind$?stbi__build_huffman@@YAHPEAUstbi__huffman@@PEAH@Z DD 020f01H
	DD	0700b720fH
$unwind$?stbi__build_fast_ac@@YAXPEAFPEAUstbi__huffman@@@Z DD 010e01H
	DD	0620eH
$unwind$?stbi__grow_buffer_unsafe@@YAXPEAUstbi__jpeg@@@Z DD 010901H
	DD	06209H
$unwind$?stbi__jpeg_huff_decode@@YAHPEAUstbi__jpeg@@PEAUstbi__huffman@@@Z DD 010e01H
	DD	0a20eH
$unwind$?stbi__extend_receive@@YAHPEAUstbi__jpeg@@H@Z DD 010d01H
	DD	0620dH
$unwind$?stbi__jpeg_get_bits@@YAHPEAUstbi__jpeg@@H@Z DD 010d01H
	DD	0620dH
$unwind$?stbi__jpeg_get_bit@@YAHPEAUstbi__jpeg@@@Z DD 010901H
	DD	06209H
$unwind$?stbi__jpeg_decode_block@@YAHPEAUstbi__jpeg@@QEAFPEAUstbi__huffman@@2PEAFHPEAG@Z DD 021901H
	DD	070159219H
$unwind$?stbi__jpeg_decode_block_prog_dc@@YAHPEAUstbi__jpeg@@QEAFPEAUstbi__huffman@@H@Z DD 021901H
	DD	070157219H
$unwind$?stbi__jpeg_decode_block_prog_ac@@YAHPEAUstbi__jpeg@@QEAFPEAUstbi__huffman@@PEAF@Z DD 021b01H
	DD	011011bH
$unwind$?stbi__idct_block@@YAXPEAEHQEAF@Z DD 022719H
	DD	0390115H
	DD	imagerel __GSHandlerCheck
	DD	01b0H
$unwind$?stbi__idct_simd@@YAXPEAEHQEAF@Z DD 021b01H
	DD	036b011bH
$unwind$?stbi__get_marker@@YAEPEAUstbi__jpeg@@@Z DD 010901H
	DD	06209H
$unwind$?stbi__jpeg_reset@@YAXPEAUstbi__jpeg@@@Z DD 010901H
	DD	02209H
$unwind$?stbi__parse_entropy_coded_data@@YAHPEAUstbi__jpeg@@@Z DD 021e19H
	DD	03f010cH
	DD	imagerel __GSHandlerCheck
	DD	01e0H
$unwind$?stbi__jpeg_dequantize@@YAXPEAFPEAG@Z DD 010e01H
	DD	0220eH
$unwind$?stbi__jpeg_finish@@YAXPEAUstbi__jpeg@@@Z DD 010901H
	DD	08209H
$unwind$?stbi__process_marker@@YAHPEAUstbi__jpeg@@H@Z DD 022219H
	DD	01b0110H
	DD	imagerel __GSHandlerCheck
	DD	0c0H
$unwind$?stbi__process_scan_header@@YAHPEAUstbi__jpeg@@@Z DD 010901H
	DD	08209H
$unwind$?stbi__free_jpeg_components@@YAHPEAUstbi__jpeg@@HH@Z DD 011201H
	DD	06212H
$unwind$?stbi__process_frame_header@@YAHPEAUstbi__jpeg@@H@Z DD 010d01H
	DD	0c20dH
$unwind$?stbi__decode_jpeg_header@@YAHPEAUstbi__jpeg@@H@Z DD 010d01H
	DD	0620dH
$unwind$?stbi__decode_jpeg_image@@YAHPEAUstbi__jpeg@@@Z DD 010901H
	DD	06209H
$unwind$?stbi__resample_row_v_2@@YAPEAEPEAE00HH@Z DD 011801H
	DD	02218H
$unwind$?stbi__resample_row_h_2@@YAPEAEPEAE00HH@Z DD 011801H
	DD	02218H
$unwind$?stbi__resample_row_hv_2@@YAPEAEPEAE00HH@Z DD 011801H
	DD	02218H
$unwind$?stbi__resample_row_hv_2_simd@@YAPEAEPEAE00HH@Z DD 021b01H
	DD	063011bH
$unwind$?stbi__resample_row_generic@@YAPEAEPEAE00HH@Z DD 011801H
	DD	02218H
$unwind$?stbi__YCbCr_to_RGB_row@@YAXPEAEPEBE11HH@Z DD 011801H
	DD	04218H
$unwind$?stbi__YCbCr_to_RGB_simd@@YAXPEAEPEBE11HH@Z DD 021b01H
	DD	08d011bH
$unwind$?stbi__setup_jpeg@@YAXPEAUstbi__jpeg@@@Z DD 010901H
	DD	04209H
$unwind$?stbi__cleanup_jpeg@@YAXPEAUstbi__jpeg@@@Z DD 010901H
	DD	04209H
$unwind$?stbi__blinn_8x8@@YAEEE@Z DD 010c01H
	DD	0220cH
$unwind$?load_jpeg_image@@YAPEAEPEAUstbi__jpeg@@PEAH11H@Z DD 022d19H
	DD	03d011bH
	DD	imagerel __GSHandlerCheck
	DD	01d0H
$unwind$?stbi__jpeg_info_raw@@YAHPEAUstbi__jpeg@@PEAH11@Z DD 011801H
	DD	06218H
$unwind$?stbi__bit_reverse@@YAHHH@Z DD 010c01H
	DD	0420cH
$unwind$?stbi__zbuild_huffman@@YAHPEAUstbi__zhuffman@@PEBEH@Z DD 032919H
	DD	01c0117H
	DD	07010H
	DD	imagerel __GSHandlerCheck
	DD	0d0H
$unwind$?stbi__zeof@@YAHPEAUstbi__zbuf@@@Z DD 010901H
	DD	02209H
$unwind$?stbi__zget8@@YAEPEAUstbi__zbuf@@@Z DD 010901H
	DD	06209H
$unwind$?stbi__fill_bits@@YAXPEAUstbi__zbuf@@@Z DD 010901H
	DD	06209H
$unwind$?stbi__zreceive@@YAIPEAUstbi__zbuf@@H@Z DD 010d01H
	DD	0620dH
$unwind$?stbi__zhuffman_decode_slowpath@@YAHPEAUstbi__zbuf@@PEAUstbi__zhuffman@@@Z DD 010e01H
	DD	0820eH
$unwind$?stbi__zhuffman_decode@@YAHPEAUstbi__zbuf@@PEAUstbi__zhuffman@@@Z DD 010e01H
	DD	0620eH
$unwind$?stbi__zexpand@@YAHPEAUstbi__zbuf@@PEADH@Z DD 011301H
	DD	08213H
$unwind$?stbi__parse_huffman_block@@YAHPEAUstbi__zbuf@@@Z DD 010901H
	DD	08209H
$unwind$?stbi__compute_huffman_codes@@YAHPEAUstbi__zbuf@@@Z DD 031f19H
	DD	0148010dH
	DD	07006H
	DD	imagerel __GSHandlerCheck
	DD	0a30H
$unwind$?stbi__parse_uncompressed_block@@YAHPEAUstbi__zbuf@@@Z DD 030b01H
	DD	07007620bH
	DD	06006H
$unwind$?stbi__parse_zlib_header@@YAHPEAUstbi__zbuf@@@Z DD 010901H
	DD	06209H
$unwind$?stbi__parse_zlib@@YAHPEAUstbi__zbuf@@H@Z DD 010d01H
	DD	0620dH
$unwind$?stbi__do_zlib@@YAHPEAUstbi__zbuf@@PEADHHH@Z DD 011801H
	DD	04218H
$unwind$?stbi__get_chunk_header@@YA?AUstbi__pngchunk@@PEAUstbi__context@@@Z DD 010901H
	DD	06209H
$unwind$?stbi__check_png_header@@YAHPEAUstbi__context@@@Z DD 010901H
	DD	06209H
$unwind$?stbi__paeth@@YAHHHH@Z DD 011101H
	DD	02211H
$unwind$?stbi__create_png_image_raw@@YAHPEAUstbi__png@@PEAEIHIIHH@Z DD 041d01H
	DD	019011dH
	DD	060157016H
$unwind$?stbi__create_png_image@@YAHPEAUstbi__png@@PEAEIHHHH@Z DD 042f19H
	DD	021011dH
	DD	060157016H
	DD	imagerel __GSHandlerCheck
	DD	0f8H
$unwind$?stbi__compute_transparency@@YAHPEAUstbi__png@@QEAEH@Z DD 011301H
	DD	04213H
$unwind$?stbi__compute_transparency16@@YAHPEAUstbi__png@@QEAGH@Z DD 011301H
	DD	04213H
$unwind$?stbi__expand_png_palette@@YAHPEAUstbi__png@@PEAEHH@Z DD 011801H
	DD	0a218H
$unwind$?stbi__de_iphone@@YAXPEAUstbi__png@@@Z DD 010901H
	DD	06209H
$unwind$?stbi__parse_png_file@@YAHPEAUstbi__png@@HH@Z DD 032819H
	DD	09c0116H
	DD	0700fH
	DD	imagerel __GSHandlerCheck
	DD	04d0H
$unwind$?stbi__do_png@@YAPEAXPEAUstbi__png@@PEAH11HPEAUstbi__result_info@@@Z DD 011801H
	DD	08218H
$unwind$?stbi__png_info_raw@@YAHPEAUstbi__png@@PEAH11@Z DD 011801H
	DD	04218H
$unwind$?stbi__bmp_test_raw@@YAHPEAUstbi__context@@@Z DD 010901H
	DD	06209H
$unwind$?stbi__high_bit@@YAHI@Z DD 010801H
	DD	02208H
$unwind$?stbi__bmp_parse_header@@YAPEAXPEAUstbi__context@@PEAUstbi__bmp_data@@@Z DD 010e01H
	DD	0c20eH
$unwind$?stbi__tga_get_comp@@YAHHHPEAH@Z DD 011101H
	DD	02211H
$unwind$?stbi__tga_read_rgb16@@YAXPEAUstbi__context@@PEAE@Z DD 010e01H
	DD	0820eH
$unwind$?stbi__psd_decode_rle@@YAHPEAUstbi__context@@PEAEH@Z DD 011301H
	DD	06213H
$unwind$?stbi__pic_is4@@YAHPEAUstbi__context@@PEBD@Z DD 010e01H
	DD	0620eH
$unwind$?stbi__pic_test_core@@YAHPEAUstbi__context@@@Z DD 010901H
	DD	06209H
$unwind$?stbi__readval@@YAPEAEPEAUstbi__context@@HPEAE@Z DD 011201H
	DD	06212H
$unwind$?stbi__copyval@@YAXHPEAEPEBE@Z DD 011201H
	DD	02212H
$unwind$?stbi__pic_load_core@@YAPEAEPEAUstbi__context@@HHPEAHPEAE@Z DD 022c19H
	DD	01b011aH
	DD	imagerel __GSHandlerCheck
	DD	0c8H
$unwind$?stbi__gif_test_raw@@YAHPEAUstbi__context@@@Z DD 010901H
	DD	06209H
$unwind$?stbi__gif_parse_colortable@@YAXPEAUstbi__context@@QEAY03EHH@Z DD 011801H
	DD	06218H
$unwind$?stbi__gif_header@@YAHPEAUstbi__context@@PEAUstbi__gif@@PEAHH@Z DD 011801H
	DD	06218H
$unwind$?stbi__gif_info_raw@@YAHPEAUstbi__context@@PEAH11@Z DD 011801H
	DD	06218H
$unwind$?stbi__out_gif_code@@YAXPEAUstbi__gif@@G@Z DD 010e01H
	DD	0820eH
$unwind$?stbi__process_gif_raster@@YAPEAEPEAUstbi__context@@PEAUstbi__gif@@@Z DD 021101H
	DD	0110111H
$unwind$?stbi__gif_load_next@@YAPEAEPEAUstbi__context@@PEAUstbi__gif@@PEAHHPEAE@Z DD 041d01H
	DD	015011dH
	DD	060157016H
$unwind$?stbi__load_gif_main_outofmem@@YAPEAXPEAUstbi__gif@@PEAEPEAPEAH@Z DD 011301H
	DD	06213H
$unwind$?stbi__hdr_test_core@@YAHPEAUstbi__context@@PEBD@Z DD 010e01H
	DD	0620eH
$unwind$?stbi__hdr_gettoken@@YAPEADPEAUstbi__context@@PEAD@Z DD 010e01H
	DD	0620eH
$unwind$?stbi__hdr_convert@@YAXPEAMPEAEH@Z DD 011301H
	DD	06213H
$unwind$?stbi__pnm_isspace@@YAHD@Z DD 010801H
	DD	02208H
$unwind$?stbi__pnm_skip_whitespace@@YAXPEAUstbi__context@@PEAD@Z DD 010e01H
	DD	0420eH
$unwind$?stbi__pnm_isdigit@@YAHD@Z DD 010801H
	DD	02208H
$unwind$?stbi__pnm_getinteger@@YAHPEAUstbi__context@@PEAD@Z DD 010e01H
	DD	0620eH
$unwind$?stbi__info_main@@YAHPEAUstbi__context@@PEAH11@Z DD 011801H
	DD	04218H
$unwind$?stbi__is_16_main@@YAHPEAUstbi__context@@@Z DD 010901H
	DD	04209H
$unwind$?stbtt__buf_get8@@YAEPEAUstbtt__buf@@@Z DD 010901H
	DD	02209H
$unwind$?stbtt__buf_seek@@YAXPEAUstbtt__buf@@H@Z DD 010d01H
	DD	0620dH
$unwind$?stbtt__buf_skip@@YAXPEAUstbtt__buf@@H@Z DD 010d01H
	DD	0420dH
$unwind$?stbtt__buf_get@@YAIPEAUstbtt__buf@@H@Z DD 010d01H
	DD	0620dH
$unwind$?stbtt__new_buf@@YA?AUstbtt__buf@@PEBX_K@Z DD 031501H
	DD	070116215H
	DD	06010H
$unwind$?stbtt__buf_range@@YA?AUstbtt__buf@@PEBU1@HH@Z DD 031a01H
	DD	07016a21aH
	DD	06015H
$unwind$?stbtt__cff_get_index@@YA?AUstbtt__buf@@PEAU1@@Z DD 031001H
	DD	0700ca210H
	DD	0600bH
$unwind$?stbtt__cff_int@@YAIPEAUstbtt__buf@@@Z DD 010901H
	DD	06209H
$unwind$?stbtt__cff_skip_operand@@YAXPEAUstbtt__buf@@@Z DD 010901H
	DD	06209H
$unwind$?stbtt__dict_get@@YA?AUstbtt__buf@@PEAU1@H@Z DD 031501H
	DD	07011e215H
	DD	06010H
$unwind$?stbtt__dict_get_ints@@YAXPEAUstbtt__buf@@HHPEAI@Z DD 031901H
	DD	07015c219H
	DD	06014H
$unwind$?stbtt__cff_index_count@@YAHPEAUstbtt__buf@@@Z DD 010901H
	DD	04209H
$unwind$?stbtt__cff_index_get@@YA?AUstbtt__buf@@U1@H@Z DD 031501H
	DD	07011a215H
	DD	06010H
$unwind$?stbtt__find_table@@YAIPEAEIPEBD@Z DD 011201H
	DD	06212H
$unwind$?stbtt_GetFontOffsetForIndex_internal@@YAHPEAEH@Z DD 010d01H
	DD	0620dH
$unwind$?stbtt_GetNumberOfFonts_internal@@YAHPEAE@Z DD 010901H
	DD	04209H
$unwind$?stbtt__get_subrs@@YA?AUstbtt__buf@@U1@0@Z DD 041801H
	DD	0190118H
	DD	060107011H
$unwind$?stbtt__get_svg@@YAHPEAUstbtt_fontinfo@@@Z DD 010901H
	DD	06209H
$unwind$?stbtt_InitFont_internal@@YAHPEAUstbtt_fontinfo@@PEAEH@Z DD 041801H
	DD	04b0118H
	DD	060107011H
$unwind$?stbtt__GetGlyfOffset@@YAHPEBUstbtt_fontinfo@@H@Z DD 010d01H
	DD	0620dH
$unwind$?stbtt__GetGlyphInfoT2@@YAHPEBUstbtt_fontinfo@@HPEAH111@Z DD 011701H
	DD	0e217H
$unwind$?stbtt__close_shape@@YAHPEAUstbtt_vertex@@HHHHHHHHH@Z DD 011701H
	DD	0a217H
$unwind$?stbtt__GetGlyphShapeTT@@YAHPEBUstbtt_fontinfo@@HPEAPEAUstbtt_vertex@@@Z DD 042919H
	DD	02f0117H
	DD	0600f7010H
	DD	imagerel __GSHandlerCheck
	DD	0168H
$unwind$?stbtt__csctx_v@@YAXPEAUstbtt__csctx@@EHHHHHH@Z DD 011701H
	DD	06217H
$unwind$?stbtt__csctx_close_shape@@YAXPEAUstbtt__csctx@@@Z DD 010901H
	DD	08209H
$unwind$?stbtt__csctx_rmove_to@@YAXPEAUstbtt__csctx@@MM@Z DD 011501H
	DD	0a215H
$unwind$?stbtt__csctx_rline_to@@YAXPEAUstbtt__csctx@@MM@Z DD 011501H
	DD	08215H
$unwind$?stbtt__csctx_rccurve_to@@YAXPEAUstbtt__csctx@@MMMMMM@Z DD 011b01H
	DD	0a21bH
$unwind$?stbtt__get_subr@@YA?AUstbtt__buf@@U1@H@Z DD 041801H
	DD	0110118H
	DD	060107011H
$unwind$?stbtt__cid_get_glyph_subrs@@YA?AUstbtt__buf@@PEBUstbtt_fontinfo@@H@Z DD 041801H
	DD	01d0118H
	DD	060107011H
$unwind$?stbtt__run_charstring@@YAHPEBUstbtt_fontinfo@@HPEAUstbtt__csctx@@@Z DD 042919H
	DD	05b0117H
	DD	0600f7010H
	DD	imagerel __GSHandlerCheck
	DD	02c0H
$unwind$?stbtt__GetGlyphShapeT2@@YAHPEBUstbtt_fontinfo@@HPEAPEAUstbtt_vertex@@@Z DD 021501H
	DD	0130115H
$unwind$?stbtt__GetGlyphKernInfoAdvance@@YAHPEBUstbtt_fontinfo@@HH@Z DD 011201H
	DD	08212H
$unwind$?stbtt__GetCoverageIndex@@YAHPEAEH@Z DD 021001H
	DD	0110110H
$unwind$?stbtt__GetGlyphClass@@YAHPEAEH@Z DD 010d01H
	DD	0e20dH
$unwind$?stbtt__GetGlyphGPOSInfoAdvance@@YAHPEBUstbtt_fontinfo@@HH@Z DD 021501H
	DD	0210115H
$unwind$?stbtt__hheap_alloc@@YAPEAXPEAUstbtt__hheap@@_KPEAX@Z DD 011301H
	DD	08213H
$unwind$?stbtt__hheap_cleanup@@YAXPEAUstbtt__hheap@@PEAX@Z DD 010e01H
	DD	0620eH
$unwind$?stbtt__new_active@@YAPEAUstbtt__active_edge@@PEAUstbtt__hheap@@PEAUstbtt__edge@@HMPEAX@Z DD 011901H
	DD	08219H
$unwind$?stbtt__handle_clipped_edge@@YAXPEAMHPEAUstbtt__active_edge@@MMMM@Z DD 011801H
	DD	04218H
$unwind$?stbtt__sized_trapezoid_area@@YAMMMM@Z DD 011601H
	DD	04216H
$unwind$?stbtt__position_trapezoid_area@@YAMMMMMM@Z DD 011c01H
	DD	0421cH
$unwind$?stbtt__fill_active_edges_new@@YAXPEAM0HPEAUstbtt__active_edge@@M@Z DD 021b01H
	DD	01d011bH
$unwind$?stbtt__rasterize_sorted_edges@@YAXPEAUstbtt__bitmap@@PEAUstbtt__edge@@HHHHPEAX@Z DD 032e19H
	DD	05c011cH
	DD	07015H
	DD	imagerel __GSHandlerCheck
	DD	02d0H
$unwind$?stbtt__sort_edges_ins_sort@@YAXPEAUstbtt__edge@@H@Z DD 031e19H
	DD	0700ba20fH
	DD	0600aH
	DD	imagerel __GSHandlerCheck
	DD	040H
$unwind$?stbtt__sort_edges_quicksort@@YAXPEAUstbtt__edge@@H@Z DD 042419H
	DD	0130112H
	DD	0600a700bH
	DD	imagerel __GSHandlerCheck
	DD	080H
$unwind$?stbtt__sort_edges@@YAXPEAUstbtt__edge@@H@Z DD 010d01H
	DD	0420dH
$unwind$?stbtt__rasterize@@YAXPEAUstbtt__bitmap@@PEAUstbtt__point@@PEAHHMMMMHHHPEAX@Z DD 021b01H
	DD	013011bH
$unwind$?stbtt__tesselate_curve@@YAHPEAUstbtt__point@@PEAHMMMMMMMH@Z DD 011a01H
	DD	0c21aH
$unwind$?stbtt__tesselate_cubic@@YAXPEAUstbtt__point@@PEAHMMMMMMMMMH@Z DD 021d01H
	DD	01b011dH
$unwind$?stbtt_FlattenCurves@@YAPEAUstbtt__point@@PEAUstbtt_vertex@@HMPEAPEAHPEAHPEAX@Z DD 042301H
	DD	0a6823H
	DD	017011bH
$unwind$?stbtt_BakeFontBitmap_internal@@YAHPEAEHM0HHHHPEAUstbtt_bakedchar@@@Z DD 031c01H
	DD	024011cH
	DD	07015H
$unwind$?stbrp_pack_rects@@YAXPEAUstbrp_context@@PEAUstbrp_rect@@H@Z DD 011301H
	DD	02213H
$unwind$?stbtt__h_prefilter@@YAXPEAEHHHI@Z DD 022719H
	DD	070149218H
	DD	imagerel __GSHandlerCheck
	DD	048H
$unwind$?stbtt__v_prefilter@@YAXPEAEHHHI@Z DD 022719H
	DD	070149218H
	DD	imagerel __GSHandlerCheck
	DD	048H
$unwind$?stbtt__ray_intersect_bezier@@YAHQEAM0000QEAY01M@Z DD 021b01H
	DD	011011bH
$unwind$?equal@@YAHPEAM0@Z DD 010e01H
	DD	0220eH
$unwind$?stbtt__compute_crossings_x@@YAHMMHPEAUstbtt_vertex@@@Z DD 022f19H
	DD	023011dH
	DD	imagerel __GSHandlerCheck
	DD	0108H
$unwind$?stbtt__cuberoot@@YAMM@Z DD 010a01H
	DD	0420aH
$unwind$?stbtt__solve_cubic@@YAHMMMPEAM@Z DD 011b01H
	DD	0a21bH
$unwind$?stbtt__CompareUTF8toUTF16_bigendian_prefix@@YAHPEAEH0H@Z DD 011701H
	DD	0c217H
$unwind$?stbtt_CompareUTF8toUTF16_bigendian_internal@@YAHPEADH0H@Z DD 011701H
	DD	06217H
$unwind$?stbtt__matchpair@@YAHPEAEI0HHH@Z DD 011701H
	DD	0c217H
$unwind$?stbtt__matches@@YAHPEAEI0H@Z DD 011701H
	DD	0a217H
$unwind$?stbtt_FindMatchingFont_internal@@YAHPEAEPEADH@Z DD 011301H
	DD	06213H
$unwind$?RunPlayer@@YAXPEAUentity@@M@Z DD 042619H
	DD	04f0114H
	DD	0600c700dH
	DD	imagerel __GSHandlerCheck
	DD	0260H
$unwind$?OnCollidePlayer@@YAXPEAUentity@@0@Z DD 010e01H
	DD	0220eH
$unwind$?ReadFile8@@YA?AUfile_contents@@PEADPEAUmemory_arena@@@Z DD 031501H
	DD	070118215H
	DD	06010H
$unwind$?FindJSONObjectElement@@YAPEAUjson_object_element_s@@Ustring8@@PEAUjson_object_s@@@Z DD 031001H
	DD	0700ce210H
	DD	0600bH
$unwind$?GrabJSONArrayElementIndexed@@YAPEAUjson_array_element_s@@IPEAUjson_array_s@@@Z DD 010d01H
	DD	0220dH
$unwind$?GrabJSONArray@@YAPEAUjson_array_s@@Ustring8@@PEAUjson_object_s@@@Z DD 031001H
	DD	0700c8210H
	DD	0600bH
$unwind$?GrabNumberFromJSONObject@@YA?AW4gltf_result@@Ustring8@@PEAUjson_object_s@@PEAM@Z DD 031501H
	DD	070118215H
	DD	06010H
$unwind$?GrabNumberFromJSONArray@@YA?AW4gltf_result@@HPEAUjson_array_s@@PEAM@Z DD 011201H
	DD	08212H
$unwind$?GetGLTFBinaryInfo@@YA?AUfile_contents@@PEAEPEAI1Ustring8@@HPEAUmemory_arena@@2PEAUjson_object_s@@4PEAUjson_array_s@@55@Z DD 041d01H
	DD	059011dH
	DD	060157016H
$unwind$?LoadGLTF@@YA?AUloaded_model@@PEADPEAUmemory_arena@@@Z DD 042a19H
	DD	01050118H
	DD	060107011H
	DD	imagerel __GSHandlerCheck
	DD	0810H
$unwind$?CalculateTransform@@YAXPEATmat4@@Tv3@@11@Z DD 042f19H
	DD	01d011dH
	DD	060157016H
	DD	imagerel __GSHandlerCheck
	DD	0d0H
$unwind$?RenderEntity@@YAXPEAUentity@@0PEAX1Upoint_light@@PEATmat4@@3@Z DD 042f19H
	DD	0125011dH
	DD	060157016H
	DD	imagerel __GSHandlerCheck
	DD	0910H
$unwind$?ReadFile16@@YA?AUfile_contents@@PEA_WPEAUmemory_arena@@@Z DD 031501H
	DD	070118215H
	DD	06010H
$unwind$?CreateImage@@YA?AUloaded_image@@PEADPEAUmemory_arena@@@Z DD 032419H
	DD	07011c215H
	DD	06010H
	DD	imagerel __GSHandlerCheck
	DD	058H
$unwind$?LoadFont@@YA?AUfont@@PEA_WPEAUmemory_arena@@M@Z DD 043619H
	DD	081710124H
	DD	060167017H
	DD	imagerel __GSHandlerCheck
	DD	040b70H
$unwind$?GetSoundAsset@@YAPEAUloaded_sound@@W4sound_asset_id@@@Z DD 010801H
	DD	02208H
$unwind$?GetImageAsset@@YAPEAUloaded_image@@W4image_asset_id@@@Z DD 010801H
	DD	02208H
$unwind$?GetModelAsset@@YAPEAUloaded_model@@W4model_asset_id@@@Z DD 010801H
	DD	02208H
$unwind$?CreateEntity@@YAPEAUentity@@PEAU1@HUpoint_light@@W4model_asset_id@@Tv3@@33P6AX0M@ZP6AX00@Z@Z DD 042e19H
	DD	02b011cH
	DD	060147015H
	DD	imagerel __GSHandlerCheck
	DD	0140H
$unwind$?GameUpdateAndRender@@YAHW4window_flags@@Uwindow_dimension@@PEAUgame_memory@@PEAUgame_input@@M@Z DD 042e19H
	DD	01f9011cH
	DD	060147015H
	DD	imagerel __GSHandlerCheck
	DD	0fb0H
xdata	ENDS
; Function compile flags: /Odtp
; File W:\new-horizons\code\horizons.cpp
_TEXT	SEGMENT
UIIndex$1 = 96
ZIndex$2 = 100
UI$3 = 104
EntityIndex$4 = 112
UIIndex$5 = 116
UIIndex$6 = 120
UIIndex$7 = 124
EntityIndex$8 = 128
Hovered$9 = 132
AlreadyHovered$10 = 136
Selected$11 = 140
UI$12 = 144
UI$13 = 152
Player$14 = 160
UI$15 = 168
UI$16 = 176
tv512 = 184
Type$17 = 188
Length$18 = 192
tv857 = 196
Type$19 = 200
tv867 = 204
tv884 = 208
tv932 = 212
tv953 = 216
UI$20 = 224
Entity$21 = 232
Entity$22 = 240
Length$23 = 248
Aspect$24 = 252
Thickness$25 = 256
Height$26 = 260
Width$27 = 264
Data$28 = 268
FrameArenaSize$29 = 272
Y$30 = 280
tv128 = 288
tv80 = 296
$T31 = 304
$T32 = 320
$T33 = 336
$T34 = 352
$T35 = 368
$T36 = 384
$T37 = 400
$T38 = 416
$T39 = 432
$T40 = 448
$T41 = 464
$T42 = 480
$T43 = 496
$T44 = 512
$T45 = 528
$T46 = 544
$T47 = 560
$T48 = 576
$T49 = 592
$T50 = 608
$T51 = 624
$T52 = 640
$T53 = 656
$T54 = 672
$T55 = 688
$T56 = 704
$T57 = 720
$T58 = 736
$T59 = 752
$T60 = 768
$T61 = 792
$T62 = 808
$T63 = 824
$T64 = 840
$T65 = 856
$T66 = 872
$T67 = 888
$T68 = 904
$T69 = 920
$T70 = 936
$T71 = 952
$T72 = 968
$T73 = 984
$T74 = 1008
$T75 = 1072
$T76 = 1136
$T77 = 1200
$T78 = 1264
$T79 = 1328
$T80 = 2120
Position$81 = 2912
$T82 = 2920
Scale$83 = 2928
$T84 = 2936
$T85 = 2952
$T86 = 2968
$T87 = 2984
$T88 = 3000
$T89 = 3008
Position$90 = 3016
$T91 = 3024
$T92 = 3040
$T93 = 3056
$T94 = 3072
$T95 = 3088
$T96 = 3104
$T97 = 3120
$T98 = 3136
$T99 = 3152
$T100 = 3168
$T101 = 3184
$T102 = 3200
$T103 = 3216
$T104 = 3232
$T105 = 3248
$T106 = 3264
$T107 = 3280
$T108 = 3296
Scale$109 = 3312
Image$110 = 3320
$T111 = 3336
Light$112 = 3360
Projection$113 = 3424
$T114 = 3488
$T115 = 3552
View$116 = 3616
$T117 = 3680
UI$118 = 3744
Indices$119 = 3920
Vertices$120 = 3952
__$ArrayPad$ = 4016
WindowFlags$ = 4064
WindowDimension$ = 4072
Memory$ = 4080
GameInput$ = 4088
DeltaTime$ = 4096
?GameUpdateAndRender@@YAHW4window_flags@@Uwindow_dimension@@PEAUgame_memory@@PEAUgame_input@@M@Z PROC ; GameUpdateAndRender

; 273  : {

$LN72:
  00000	4c 89 4c 24 20	 mov	 QWORD PTR [rsp+32], r9
  00005	4c 89 44 24 18	 mov	 QWORD PTR [rsp+24], r8
  0000a	48 89 54 24 10	 mov	 QWORD PTR [rsp+16], rdx
  0000f	89 4c 24 08	 mov	 DWORD PTR [rsp+8], ecx
  00013	56		 push	 rsi
  00014	57		 push	 rdi
  00015	48 81 ec c8 0f
	00 00		 sub	 rsp, 4040		; 00000fc8H
  0001c	48 8b 05 00 00
	00 00		 mov	 rax, QWORD PTR __security_cookie
  00023	48 33 c4	 xor	 rax, rsp
  00026	48 89 84 24 b0
	0f 00 00	 mov	 QWORD PTR __$ArrayPad$[rsp], rax

; 274  :     Input = GameInput;

  0002e	48 8b 84 24 f8
	0f 00 00	 mov	 rax, QWORD PTR GameInput$[rsp]
  00036	48 89 05 00 00
	00 00		 mov	 QWORD PTR ?Input@@3PEAUgame_input@@EA, rax

; 275  :     
; 276  :     State = (game_state *)Memory->PermanentStorage;

  0003d	48 8b 84 24 f0
	0f 00 00	 mov	 rax, QWORD PTR Memory$[rsp]
  00045	48 8b 40 08	 mov	 rax, QWORD PTR [rax+8]
  00049	48 89 05 00 00
	00 00		 mov	 QWORD PTR ?State@@3PEAUgame_state@@EA, rax

; 277  :     TranState = (transient_state *)Memory->TransientStorage;

  00050	48 8b 84 24 f0
	0f 00 00	 mov	 rax, QWORD PTR Memory$[rsp]
  00058	48 8b 40 18	 mov	 rax, QWORD PTR [rax+24]
  0005c	48 89 05 00 00
	00 00		 mov	 QWORD PTR ?TranState@@3PEAUtransient_state@@EA, rax

; 278  :     
; 279  :     State->Time += DeltaTime;

  00063	48 8b 05 00 00
	00 00		 mov	 rax, QWORD PTR ?State@@3PEAUgame_state@@EA
  0006a	f3 0f 10 80 f0
	00 00 00	 movss	 xmm0, DWORD PTR [rax+240]
  00072	f3 0f 58 84 24
	00 10 00 00	 addss	 xmm0, DWORD PTR DeltaTime$[rsp]
  0007b	48 8b 05 00 00
	00 00		 mov	 rax, QWORD PTR ?State@@3PEAUgame_state@@EA
  00082	f3 0f 11 80 f0
	00 00 00	 movss	 DWORD PTR [rax+240], xmm0

; 280  :     
; 281  :     Platform = &Memory->Platform;

  0008a	48 8b 84 24 f0
	0f 00 00	 mov	 rax, QWORD PTR Memory$[rsp]
  00092	48 83 c0 20	 add	 rax, 32			; 00000020H
  00096	48 89 05 00 00
	00 00		 mov	 QWORD PTR ?Platform@@3PEAUplatform_api@@EA, rax

; 282  :     
; 283  :     //
; 284  :     // NOTE(evan): Initialization
; 285  :     //
; 286  :     if(!TranState->IsInitialized)

  0009d	48 8b 05 00 00
	00 00		 mov	 rax, QWORD PTR ?TranState@@3PEAUtransient_state@@EA
  000a4	83 38 00	 cmp	 DWORD PTR [rax], 0
  000a7	0f 85 29 0e 00
	00		 jne	 $LN20@GameUpdate

; 287  :     {
; 288  :         memory_index FrameArenaSize = Memory->PermanentStorageSize/2;

  000ad	33 d2		 xor	 edx, edx
  000af	48 8b 84 24 f0
	0f 00 00	 mov	 rax, QWORD PTR Memory$[rsp]
  000b7	48 8b 00	 mov	 rax, QWORD PTR [rax]
  000ba	b9 02 00 00 00	 mov	 ecx, 2
  000bf	48 f7 f1	 div	 rcx
  000c2	48 89 84 24 10
	01 00 00	 mov	 QWORD PTR FrameArenaSize$29[rsp], rax

; 289  :         
; 290  :         InitializeArena(&State->WorldArena, (u8 *)Memory->PermanentStorage + sizeof(game_state),

  000ca	48 8b 84 24 f0
	0f 00 00	 mov	 rax, QWORD PTR Memory$[rsp]
  000d2	48 8b 00	 mov	 rax, QWORD PTR [rax]
  000d5	48 2d 80 1a 00
	00		 sub	 rax, 6784		; 00001a80H
  000db	48 8b 8c 24 f0
	0f 00 00	 mov	 rcx, QWORD PTR Memory$[rsp]
  000e3	48 8b 49 08	 mov	 rcx, QWORD PTR [rcx+8]
  000e7	48 81 c1 80 1a
	00 00		 add	 rcx, 6784		; 00001a80H
  000ee	48 8b 15 00 00
	00 00		 mov	 rdx, QWORD PTR ?State@@3PEAUgame_state@@EA
  000f5	48 81 c2 20 01
	00 00		 add	 rdx, 288		; 00000120H
  000fc	48 89 94 24 28
	01 00 00	 mov	 QWORD PTR tv80[rsp], rdx
  00104	4c 8b c0	 mov	 r8, rax
  00107	48 8b d1	 mov	 rdx, rcx
  0010a	48 8b 84 24 28
	01 00 00	 mov	 rax, QWORD PTR tv80[rsp]
  00112	48 8b c8	 mov	 rcx, rax
  00115	e8 00 00 00 00	 call	 InitializeArena

; 291  :                         Memory->PermanentStorageSize - sizeof(game_state));
; 292  :         InitializeArena(&TranState->FrameArena, (u8 *)Memory->TransientStorage + sizeof(transient_state), FrameArenaSize);

  0011a	48 8b 84 24 f0
	0f 00 00	 mov	 rax, QWORD PTR Memory$[rsp]
  00122	48 8b 40 18	 mov	 rax, QWORD PTR [rax+24]
  00126	48 05 d0 6c 00
	00		 add	 rax, 27856		; 00006cd0H
  0012c	48 8b 0d 00 00
	00 00		 mov	 rcx, QWORD PTR ?TranState@@3PEAUtransient_state@@EA
  00133	48 83 c1 20	 add	 rcx, 32			; 00000020H
  00137	4c 8b 84 24 10
	01 00 00	 mov	 r8, QWORD PTR FrameArenaSize$29[rsp]
  0013f	48 8b d0	 mov	 rdx, rax
  00142	e8 00 00 00 00	 call	 InitializeArena

; 293  :         InitializeArena(&TranState->TranArena, (u8 *)Memory->TransientStorage + sizeof(transient_state) + FrameArenaSize,

  00147	48 8b 84 24 f0
	0f 00 00	 mov	 rax, QWORD PTR Memory$[rsp]
  0014f	48 8b 40 10	 mov	 rax, QWORD PTR [rax+16]
  00153	48 2d d0 6c 00
	00		 sub	 rax, 27856		; 00006cd0H
  00159	48 2b 84 24 10
	01 00 00	 sub	 rax, QWORD PTR FrameArenaSize$29[rsp]
  00161	48 8b 8c 24 f0
	0f 00 00	 mov	 rcx, QWORD PTR Memory$[rsp]
  00169	48 8b 49 18	 mov	 rcx, QWORD PTR [rcx+24]
  0016d	48 8b 94 24 10
	01 00 00	 mov	 rdx, QWORD PTR FrameArenaSize$29[rsp]
  00175	48 8d 8c 11 d0
	6c 00 00	 lea	 rcx, QWORD PTR [rcx+rdx+27856]
  0017d	48 8b 15 00 00
	00 00		 mov	 rdx, QWORD PTR ?TranState@@3PEAUtransient_state@@EA
  00184	48 83 c2 08	 add	 rdx, 8
  00188	48 89 94 24 20
	01 00 00	 mov	 QWORD PTR tv128[rsp], rdx
  00190	4c 8b c0	 mov	 r8, rax
  00193	48 8b d1	 mov	 rdx, rcx
  00196	48 8b 84 24 20
	01 00 00	 mov	 rax, QWORD PTR tv128[rsp]
  0019e	48 8b c8	 mov	 rcx, rax
  001a1	e8 00 00 00 00	 call	 InitializeArena

; 294  :                         Memory->TransientStorageSize - sizeof(transient_state) - FrameArenaSize);
; 295  :         InitializeArena(&State->EntityArena,

  001a6	48 8b 05 00 00
	00 00		 mov	 rax, QWORD PTR ?State@@3PEAUgame_state@@EA
  001ad	48 05 20 01 00
	00		 add	 rax, 288		; 00000120H
  001b3	ba 00 6c 00 00	 mov	 edx, 27648		; 00006c00H
  001b8	48 8b c8	 mov	 rcx, rax
  001bb	e8 00 00 00 00	 call	 PushSize
  001c0	48 8b 0d 00 00
	00 00		 mov	 rcx, QWORD PTR ?State@@3PEAUgame_state@@EA
  001c7	48 81 c1 58 04
	00 00		 add	 rcx, 1112		; 00000458H
  001ce	41 b8 00 6c 00
	00		 mov	 r8d, 27648		; 00006c00H
  001d4	48 8b d0	 mov	 rdx, rax
  001d7	e8 00 00 00 00	 call	 InitializeArena

; 296  :                         (u8 *)PushArray(&State->WorldArena, entity, MAX_ENTITY_COUNT),
; 297  :                         sizeof(entity)*MAX_ENTITY_COUNT);
; 298  :         
; 299  :         Platform->ZeroMemory(TranState->Entities, sizeof(entity *)*MAX_ENTITY_COUNT);

  001dc	48 8b 05 00 00
	00 00		 mov	 rax, QWORD PTR ?TranState@@3PEAUtransient_state@@EA
  001e3	48 05 c8 00 00
	00		 add	 rax, 200		; 000000c8H
  001e9	ba 00 04 00 00	 mov	 edx, 1024		; 00000400H
  001ee	48 8b c8	 mov	 rcx, rax
  001f1	48 8b 05 00 00
	00 00		 mov	 rax, QWORD PTR ?Platform@@3PEAUplatform_api@@EA
  001f8	ff 90 90 00 00
	00		 call	 QWORD PTR [rax+144]

; 300  :         
; 301  :         {
; 302  :             u32 Data[1] =
; 303  :             {
; 304  :                 0xFFFFFFFF

  001fe	c7 84 24 0c 01
	00 00 ff ff ff
	ff		 mov	 DWORD PTR Data$28[rsp], -1 ; ffffffffH

; 305  :             };
; 306  :             u32 Width = 1;

  00209	c7 84 24 08 01
	00 00 01 00 00
	00		 mov	 DWORD PTR Width$27[rsp], 1

; 307  :             u32 Height = 1;

  00214	c7 84 24 04 01
	00 00 01 00 00
	00		 mov	 DWORD PTR Height$26[rsp], 1

; 308  :             State->BasicTexture = Platform->CreateTexture(Data, Width, Height);

  0021f	44 8b 84 24 04
	01 00 00	 mov	 r8d, DWORD PTR Height$26[rsp]
  00227	8b 94 24 08 01
	00 00		 mov	 edx, DWORD PTR Width$27[rsp]
  0022e	48 8d 8c 24 0c
	01 00 00	 lea	 rcx, QWORD PTR Data$28[rsp]
  00236	48 8b 05 00 00
	00 00		 mov	 rax, QWORD PTR ?Platform@@3PEAUplatform_api@@EA
  0023d	ff 50 40	 call	 QWORD PTR [rax+64]
  00240	48 8b 0d 00 00
	00 00		 mov	 rcx, QWORD PTR ?State@@3PEAUgame_state@@EA
  00247	48 89 81 08 01
	00 00		 mov	 QWORD PTR [rcx+264], rax

; 309  :             
; 310  :             ui_vertex Vertices[4] =
; 311  :             {
; 312  :                 { { +1.0f, +1.0f }, { 1.0f, 1.0f } }, // Top right

  0024e	f3 0f 10 05 00
	00 00 00	 movss	 xmm0, DWORD PTR __real@3f800000
  00256	f3 0f 11 84 24
	70 0f 00 00	 movss	 DWORD PTR Vertices$120[rsp], xmm0
  0025f	f3 0f 10 05 00
	00 00 00	 movss	 xmm0, DWORD PTR __real@3f800000
  00267	f3 0f 11 84 24
	74 0f 00 00	 movss	 DWORD PTR Vertices$120[rsp+4], xmm0
  00270	f3 0f 10 05 00
	00 00 00	 movss	 xmm0, DWORD PTR __real@3f800000
  00278	f3 0f 11 84 24
	78 0f 00 00	 movss	 DWORD PTR Vertices$120[rsp+8], xmm0
  00281	f3 0f 10 05 00
	00 00 00	 movss	 xmm0, DWORD PTR __real@3f800000
  00289	f3 0f 11 84 24
	7c 0f 00 00	 movss	 DWORD PTR Vertices$120[rsp+12], xmm0

; 313  :                 { { +1.0f, -1.0f }, { 1.0f, 0.0f } }, // Bottom right

  00292	f3 0f 10 05 00
	00 00 00	 movss	 xmm0, DWORD PTR __real@3f800000
  0029a	f3 0f 11 84 24
	80 0f 00 00	 movss	 DWORD PTR Vertices$120[rsp+16], xmm0
  002a3	f3 0f 10 05 00
	00 00 00	 movss	 xmm0, DWORD PTR __real@bf800000
  002ab	f3 0f 11 84 24
	84 0f 00 00	 movss	 DWORD PTR Vertices$120[rsp+20], xmm0
  002b4	f3 0f 10 05 00
	00 00 00	 movss	 xmm0, DWORD PTR __real@3f800000
  002bc	f3 0f 11 84 24
	88 0f 00 00	 movss	 DWORD PTR Vertices$120[rsp+24], xmm0
  002c5	0f 57 c0	 xorps	 xmm0, xmm0
  002c8	f3 0f 11 84 24
	8c 0f 00 00	 movss	 DWORD PTR Vertices$120[rsp+28], xmm0

; 314  :                 { { -1.0f, -1.0f }, { 0.0f, 0.0f } }, // Bottom left

  002d1	f3 0f 10 05 00
	00 00 00	 movss	 xmm0, DWORD PTR __real@bf800000
  002d9	f3 0f 11 84 24
	90 0f 00 00	 movss	 DWORD PTR Vertices$120[rsp+32], xmm0
  002e2	f3 0f 10 05 00
	00 00 00	 movss	 xmm0, DWORD PTR __real@bf800000
  002ea	f3 0f 11 84 24
	94 0f 00 00	 movss	 DWORD PTR Vertices$120[rsp+36], xmm0
  002f3	0f 57 c0	 xorps	 xmm0, xmm0
  002f6	f3 0f 11 84 24
	98 0f 00 00	 movss	 DWORD PTR Vertices$120[rsp+40], xmm0
  002ff	0f 57 c0	 xorps	 xmm0, xmm0
  00302	f3 0f 11 84 24
	9c 0f 00 00	 movss	 DWORD PTR Vertices$120[rsp+44], xmm0

; 315  :                 { { -1.0f, +1.0f }, { 0.0f, 1.0f } }  // Top left

  0030b	f3 0f 10 05 00
	00 00 00	 movss	 xmm0, DWORD PTR __real@bf800000
  00313	f3 0f 11 84 24
	a0 0f 00 00	 movss	 DWORD PTR Vertices$120[rsp+48], xmm0
  0031c	f3 0f 10 05 00
	00 00 00	 movss	 xmm0, DWORD PTR __real@3f800000
  00324	f3 0f 11 84 24
	a4 0f 00 00	 movss	 DWORD PTR Vertices$120[rsp+52], xmm0
  0032d	0f 57 c0	 xorps	 xmm0, xmm0
  00330	f3 0f 11 84 24
	a8 0f 00 00	 movss	 DWORD PTR Vertices$120[rsp+56], xmm0
  00339	f3 0f 10 05 00
	00 00 00	 movss	 xmm0, DWORD PTR __real@3f800000
  00341	f3 0f 11 84 24
	ac 0f 00 00	 movss	 DWORD PTR Vertices$120[rsp+60], xmm0

; 316  :             };
; 317  :             
; 318  :             u32 Indices[6] =
; 319  :             {
; 320  :                 0, 1, 3,

  0034a	c7 84 24 50 0f
	00 00 00 00 00
	00		 mov	 DWORD PTR Indices$119[rsp], 0
  00355	c7 84 24 54 0f
	00 00 01 00 00
	00		 mov	 DWORD PTR Indices$119[rsp+4], 1
  00360	c7 84 24 58 0f
	00 00 03 00 00
	00		 mov	 DWORD PTR Indices$119[rsp+8], 3

; 321  :                 1, 2, 3

  0036b	c7 84 24 5c 0f
	00 00 01 00 00
	00		 mov	 DWORD PTR Indices$119[rsp+12], 1
  00376	c7 84 24 60 0f
	00 00 02 00 00
	00		 mov	 DWORD PTR Indices$119[rsp+16], 2
  00381	c7 84 24 64 0f
	00 00 03 00 00
	00		 mov	 DWORD PTR Indices$119[rsp+20], 3

; 322  :             };
; 323  :             State->Quad = Platform->CreateMesh(Vertices, ArrayCount(Vertices),

  0038c	c7 44 24 20 01
	00 00 00	 mov	 DWORD PTR [rsp+32], 1
  00394	41 b9 06 00 00
	00		 mov	 r9d, 6
  0039a	4c 8d 84 24 50
	0f 00 00	 lea	 r8, QWORD PTR Indices$119[rsp]
  003a2	ba 04 00 00 00	 mov	 edx, 4
  003a7	48 8d 8c 24 70
	0f 00 00	 lea	 rcx, QWORD PTR Vertices$120[rsp]
  003af	48 8b 05 00 00
	00 00		 mov	 rax, QWORD PTR ?Platform@@3PEAUplatform_api@@EA
  003b6	ff 50 30	 call	 QWORD PTR [rax+48]
  003b9	48 8b 0d 00 00
	00 00		 mov	 rcx, QWORD PTR ?State@@3PEAUgame_state@@EA
  003c0	48 89 81 00 01
	00 00		 mov	 QWORD PTR [rcx+256], rax

; 324  :                                                Indices, ArrayCount(Indices), true);
; 325  :         }
; 326  :         
; 327  :         State->Font = LoadFont(L"../assets/RandyGG.ttf", &TranState->TranArena, 32.0f);

  003c7	48 8b 05 00 00
	00 00		 mov	 rax, QWORD PTR ?TranState@@3PEAUtransient_state@@EA
  003ce	48 83 c0 08	 add	 rax, 8
  003d2	f3 0f 10 1d 00
	00 00 00	 movss	 xmm3, DWORD PTR __real@42000000
  003da	4c 8b c0	 mov	 r8, rax
  003dd	48 8d 15 00 00
	00 00		 lea	 rdx, OFFSET FLAT:$SG46646
  003e4	48 8d 8c 24 48
	08 00 00	 lea	 rcx, QWORD PTR $T80[rsp]
  003ec	e8 00 00 00 00	 call	 ?LoadFont@@YA?AUfont@@PEA_WPEAUmemory_arena@@M@Z ; LoadFont
  003f1	48 8d 8c 24 30
	05 00 00	 lea	 rcx, QWORD PTR $T79[rsp]
  003f9	48 8b f9	 mov	 rdi, rcx
  003fc	48 8b f0	 mov	 rsi, rax
  003ff	b9 18 03 00 00	 mov	 ecx, 792		; 00000318H
  00404	f3 a4		 rep movsb
  00406	48 8b 05 00 00
	00 00		 mov	 rax, QWORD PTR ?State@@3PEAUgame_state@@EA
  0040d	48 8d 8c 24 30
	05 00 00	 lea	 rcx, QWORD PTR $T79[rsp]
  00415	48 8d b8 40 01
	00 00		 lea	 rdi, QWORD PTR [rax+320]
  0041c	48 8b f1	 mov	 rsi, rcx
  0041f	b9 18 03 00 00	 mov	 ecx, 792		; 00000318H
  00424	f3 a4		 rep movsb

; 328  :         
; 329  :         // NOTE(evan): Sounds
; 330  :         *GetSoundAsset(SID_EXPLOSION) = Platform->CreateSound(L"../assets/sound.wav", 0.5f, &State->WorldArena);

  00426	48 8b 05 00 00
	00 00		 mov	 rax, QWORD PTR ?State@@3PEAUgame_state@@EA
  0042d	48 05 20 01 00
	00		 add	 rax, 288		; 00000120H
  00433	4c 8b c8	 mov	 r9, rax
  00436	f3 0f 10 15 00
	00 00 00	 movss	 xmm2, DWORD PTR __real@3f000000
  0043e	48 8d 15 00 00
	00 00		 lea	 rdx, OFFSET FLAT:$SG46647
  00445	48 8d 8c 24 d8
	03 00 00	 lea	 rcx, QWORD PTR $T73[rsp]
  0044d	48 8b 05 00 00
	00 00		 mov	 rax, QWORD PTR ?Platform@@3PEAUplatform_api@@EA
  00454	ff 50 58	 call	 QWORD PTR [rax+88]
  00457	48 8d 8c 24 00
	03 00 00	 lea	 rcx, QWORD PTR $T60[rsp]
  0045f	48 8b f9	 mov	 rdi, rcx
  00462	48 8b f0	 mov	 rsi, rax
  00465	b9 18 00 00 00	 mov	 ecx, 24
  0046a	f3 a4		 rep movsb
  0046c	b9 01 00 00 00	 mov	 ecx, 1
  00471	e8 00 00 00 00	 call	 ?GetSoundAsset@@YAPEAUloaded_sound@@W4sound_asset_id@@@Z ; GetSoundAsset
  00476	48 8d 8c 24 00
	03 00 00	 lea	 rcx, QWORD PTR $T60[rsp]
  0047e	48 8b f8	 mov	 rdi, rax
  00481	48 8b f1	 mov	 rsi, rcx
  00484	b9 18 00 00 00	 mov	 ecx, 24
  00489	f3 a4		 rep movsb

; 331  :         
; 332  :         // NOTE(evan): Images
; 333  :         *GetImageAsset(IID_SMILE) = CreateImage("../assets/test.png", &State->WorldArena);

  0048b	48 8b 05 00 00
	00 00		 mov	 rax, QWORD PTR ?State@@3PEAUgame_state@@EA
  00492	48 05 20 01 00
	00		 add	 rax, 288		; 00000120H
  00498	4c 8b c0	 mov	 r8, rax
  0049b	48 8d 15 00 00
	00 00		 lea	 rdx, OFFSET FLAT:$SG46648
  004a2	48 8d 8c 24 c8
	03 00 00	 lea	 rcx, QWORD PTR $T72[rsp]
  004aa	e8 00 00 00 00	 call	 ?CreateImage@@YA?AUloaded_image@@PEADPEAUmemory_arena@@@Z ; CreateImage
  004af	48 8d 8c 24 08
	0d 00 00	 lea	 rcx, QWORD PTR $T111[rsp]
  004b7	48 8b f9	 mov	 rdi, rcx
  004ba	48 8b f0	 mov	 rsi, rax
  004bd	b9 10 00 00 00	 mov	 ecx, 16
  004c2	f3 a4		 rep movsb
  004c4	b9 01 00 00 00	 mov	 ecx, 1
  004c9	e8 00 00 00 00	 call	 ?GetImageAsset@@YAPEAUloaded_image@@W4image_asset_id@@@Z ; GetImageAsset
  004ce	48 8d 8c 24 08
	0d 00 00	 lea	 rcx, QWORD PTR $T111[rsp]
  004d6	48 8b f8	 mov	 rdi, rax
  004d9	48 8b f1	 mov	 rsi, rcx
  004dc	b9 10 00 00 00	 mov	 ecx, 16
  004e1	f3 a4		 rep movsb

; 334  :         
; 335  :         // NOTE(evan): Models
; 336  :         *GetModelAsset(MID_SCENE) = LoadGLTF("../assets/models/scene.gltf", &State->WorldArena);

  004e3	48 8b 05 00 00
	00 00		 mov	 rax, QWORD PTR ?State@@3PEAUgame_state@@EA
  004ea	48 05 20 01 00
	00		 add	 rax, 288		; 00000120H
  004f0	4c 8b c0	 mov	 r8, rax
  004f3	48 8d 15 00 00
	00 00		 lea	 rdx, OFFSET FLAT:$SG46649
  004fa	48 8d 8c 24 b8
	03 00 00	 lea	 rcx, QWORD PTR $T71[rsp]
  00502	e8 00 00 00 00	 call	 ?LoadGLTF@@YA?AUloaded_model@@PEADPEAUmemory_arena@@@Z ; LoadGLTF
  00507	48 8d 8c 24 30
	02 00 00	 lea	 rcx, QWORD PTR $T47[rsp]
  0050f	48 8b f9	 mov	 rdi, rcx
  00512	48 8b f0	 mov	 rsi, rax
  00515	b9 10 00 00 00	 mov	 ecx, 16
  0051a	f3 a4		 rep movsb
  0051c	b9 03 00 00 00	 mov	 ecx, 3
  00521	e8 00 00 00 00	 call	 ?GetModelAsset@@YAPEAUloaded_model@@W4model_asset_id@@@Z ; GetModelAsset
  00526	48 8d 8c 24 30
	02 00 00	 lea	 rcx, QWORD PTR $T47[rsp]
  0052e	48 8b f8	 mov	 rdi, rax
  00531	48 8b f1	 mov	 rsi, rcx
  00534	b9 10 00 00 00	 mov	 ecx, 16
  00539	f3 a4		 rep movsb

; 337  :         *GetModelAsset(MID_SPHERE) = LoadGLTF("../assets/models/primitives/sphere.gltf", &State->WorldArena);

  0053b	48 8b 05 00 00
	00 00		 mov	 rax, QWORD PTR ?State@@3PEAUgame_state@@EA
  00542	48 05 20 01 00
	00		 add	 rax, 288		; 00000120H
  00548	4c 8b c0	 mov	 r8, rax
  0054b	48 8d 15 00 00
	00 00		 lea	 rdx, OFFSET FLAT:$SG46650
  00552	48 8d 8c 24 a8
	03 00 00	 lea	 rcx, QWORD PTR $T70[rsp]
  0055a	e8 00 00 00 00	 call	 ?LoadGLTF@@YA?AUloaded_model@@PEADPEAUmemory_arena@@@Z ; LoadGLTF
  0055f	48 8d 8c 24 40
	02 00 00	 lea	 rcx, QWORD PTR $T48[rsp]
  00567	48 8b f9	 mov	 rdi, rcx
  0056a	48 8b f0	 mov	 rsi, rax
  0056d	b9 10 00 00 00	 mov	 ecx, 16
  00572	f3 a4		 rep movsb
  00574	b9 02 00 00 00	 mov	 ecx, 2
  00579	e8 00 00 00 00	 call	 ?GetModelAsset@@YAPEAUloaded_model@@W4model_asset_id@@@Z ; GetModelAsset
  0057e	48 8d 8c 24 40
	02 00 00	 lea	 rcx, QWORD PTR $T48[rsp]
  00586	48 8b f8	 mov	 rdi, rax
  00589	48 8b f1	 mov	 rsi, rcx
  0058c	b9 10 00 00 00	 mov	 ecx, 16
  00591	f3 a4		 rep movsb

; 338  :         *GetModelAsset(MID_BEAN) = LoadGLTF("../assets/models/primitives/bean.gltf", &State->WorldArena);

  00593	48 8b 05 00 00
	00 00		 mov	 rax, QWORD PTR ?State@@3PEAUgame_state@@EA
  0059a	48 05 20 01 00
	00		 add	 rax, 288		; 00000120H
  005a0	4c 8b c0	 mov	 r8, rax
  005a3	48 8d 15 00 00
	00 00		 lea	 rdx, OFFSET FLAT:$SG46651
  005aa	48 8d 8c 24 98
	03 00 00	 lea	 rcx, QWORD PTR $T69[rsp]
  005b2	e8 00 00 00 00	 call	 ?LoadGLTF@@YA?AUloaded_model@@PEADPEAUmemory_arena@@@Z ; LoadGLTF
  005b7	48 8d 8c 24 60
	02 00 00	 lea	 rcx, QWORD PTR $T50[rsp]
  005bf	48 8b f9	 mov	 rdi, rcx
  005c2	48 8b f0	 mov	 rsi, rax
  005c5	b9 10 00 00 00	 mov	 ecx, 16
  005ca	f3 a4		 rep movsb
  005cc	b9 01 00 00 00	 mov	 ecx, 1
  005d1	e8 00 00 00 00	 call	 ?GetModelAsset@@YAPEAUloaded_model@@W4model_asset_id@@@Z ; GetModelAsset
  005d6	48 8d 8c 24 60
	02 00 00	 lea	 rcx, QWORD PTR $T50[rsp]
  005de	48 8b f8	 mov	 rdi, rax
  005e1	48 8b f1	 mov	 rsi, rcx
  005e4	b9 10 00 00 00	 mov	 ecx, 16
  005e9	f3 a4		 rep movsb

; 339  :         
; 340  :         CreateEntity(0, false, {}, MID_SCENE, {}, V3(1.0f, 1.0f, 1.0f), {});

  005eb	48 8d 84 24 c0
	0c 00 00	 lea	 rax, QWORD PTR $T106[rsp]
  005f3	48 8b f8	 mov	 rdi, rax
  005f6	33 c0		 xor	 eax, eax
  005f8	b9 0c 00 00 00	 mov	 ecx, 12
  005fd	f3 aa		 rep stosb
  005ff	f3 0f 10 1d 00
	00 00 00	 movss	 xmm3, DWORD PTR __real@3f800000
  00607	f3 0f 10 15 00
	00 00 00	 movss	 xmm2, DWORD PTR __real@3f800000
  0060f	f3 0f 10 0d 00
	00 00 00	 movss	 xmm1, DWORD PTR __real@3f800000
  00617	48 8d 8c 24 d0
	02 00 00	 lea	 rcx, QWORD PTR $T57[rsp]
  0061f	e8 00 00 00 00	 call	 ?V3@@YA?ATv3@@MMM@Z	; V3
  00624	48 8d 8c 24 b0
	0c 00 00	 lea	 rcx, QWORD PTR $T105[rsp]
  0062c	48 8b f9	 mov	 rdi, rcx
  0062f	48 8b f0	 mov	 rsi, rax
  00632	b9 0c 00 00 00	 mov	 ecx, 12
  00637	f3 a4		 rep movsb
  00639	48 8d 84 24 d0
	0c 00 00	 lea	 rax, QWORD PTR $T107[rsp]
  00641	48 8b f8	 mov	 rdi, rax
  00644	33 c0		 xor	 eax, eax
  00646	b9 0c 00 00 00	 mov	 ecx, 12
  0064b	f3 aa		 rep stosb
  0064d	48 8d 84 24 a0
	0d 00 00	 lea	 rax, QWORD PTR $T114[rsp]
  00655	48 8b f8	 mov	 rdi, rax
  00658	33 c0		 xor	 eax, eax
  0065a	b9 40 00 00 00	 mov	 ecx, 64			; 00000040H
  0065f	f3 aa		 rep stosb
  00661	48 8d 84 24 d0
	01 00 00	 lea	 rax, QWORD PTR $T41[rsp]
  00669	48 8d 8c 24 c0
	0c 00 00	 lea	 rcx, QWORD PTR $T106[rsp]
  00671	48 8b f8	 mov	 rdi, rax
  00674	48 8b f1	 mov	 rsi, rcx
  00677	b9 0c 00 00 00	 mov	 ecx, 12
  0067c	f3 a4		 rep movsb
  0067e	48 8d 84 24 e0
	01 00 00	 lea	 rax, QWORD PTR $T42[rsp]
  00686	48 8d 8c 24 b0
	0c 00 00	 lea	 rcx, QWORD PTR $T105[rsp]
  0068e	48 8b f8	 mov	 rdi, rax
  00691	48 8b f1	 mov	 rsi, rcx
  00694	b9 0c 00 00 00	 mov	 ecx, 12
  00699	f3 a4		 rep movsb
  0069b	48 8d 84 24 f0
	01 00 00	 lea	 rax, QWORD PTR $T43[rsp]
  006a3	48 8d 8c 24 d0
	0c 00 00	 lea	 rcx, QWORD PTR $T107[rsp]
  006ab	48 8b f8	 mov	 rdi, rax
  006ae	48 8b f1	 mov	 rsi, rcx
  006b1	b9 0c 00 00 00	 mov	 ecx, 12
  006b6	f3 a4		 rep movsb
  006b8	48 8d 84 24 f0
	04 00 00	 lea	 rax, QWORD PTR $T78[rsp]
  006c0	48 8d 8c 24 a0
	0d 00 00	 lea	 rcx, QWORD PTR $T114[rsp]
  006c8	48 8b f8	 mov	 rdi, rax
  006cb	48 8b f1	 mov	 rsi, rcx
  006ce	b9 40 00 00 00	 mov	 ecx, 64			; 00000040H
  006d3	f3 a4		 rep movsb
  006d5	48 c7 44 24 40
	00 00 00 00	 mov	 QWORD PTR [rsp+64], 0
  006de	48 c7 44 24 38
	00 00 00 00	 mov	 QWORD PTR [rsp+56], 0
  006e7	48 8d 84 24 d0
	01 00 00	 lea	 rax, QWORD PTR $T41[rsp]
  006ef	48 89 44 24 30	 mov	 QWORD PTR [rsp+48], rax
  006f4	48 8d 84 24 e0
	01 00 00	 lea	 rax, QWORD PTR $T42[rsp]
  006fc	48 89 44 24 28	 mov	 QWORD PTR [rsp+40], rax
  00701	48 8d 84 24 f0
	01 00 00	 lea	 rax, QWORD PTR $T43[rsp]
  00709	48 89 44 24 20	 mov	 QWORD PTR [rsp+32], rax
  0070e	41 b9 03 00 00
	00		 mov	 r9d, 3
  00714	4c 8d 84 24 f0
	04 00 00	 lea	 r8, QWORD PTR $T78[rsp]
  0071c	33 d2		 xor	 edx, edx
  0071e	33 c9		 xor	 ecx, ecx
  00720	e8 00 00 00 00	 call	 ?CreateEntity@@YAPEAUentity@@PEAU1@HUpoint_light@@W4model_asset_id@@Tv3@@33P6AX0M@ZP6AX00@Z@Z ; CreateEntity

; 341  :         entity *Player = CreateEntity(0, false, {}, MID_NONE, V3(0.0f, 10.0f, 0.0f), V3(1.0f, 1.0f, 1.0f), {}, RunPlayer);

  00725	48 8d 84 24 a0
	0c 00 00	 lea	 rax, QWORD PTR $T104[rsp]
  0072d	48 8b f8	 mov	 rdi, rax
  00730	33 c0		 xor	 eax, eax
  00732	b9 0c 00 00 00	 mov	 ecx, 12
  00737	f3 aa		 rep stosb
  00739	f3 0f 10 1d 00
	00 00 00	 movss	 xmm3, DWORD PTR __real@3f800000
  00741	f3 0f 10 15 00
	00 00 00	 movss	 xmm2, DWORD PTR __real@3f800000
  00749	f3 0f 10 0d 00
	00 00 00	 movss	 xmm1, DWORD PTR __real@3f800000
  00751	48 8d 8c 24 e0
	02 00 00	 lea	 rcx, QWORD PTR $T58[rsp]
  00759	e8 00 00 00 00	 call	 ?V3@@YA?ATv3@@MMM@Z	; V3
  0075e	48 8d 8c 24 90
	0c 00 00	 lea	 rcx, QWORD PTR $T103[rsp]
  00766	48 8b f9	 mov	 rdi, rcx
  00769	48 8b f0	 mov	 rsi, rax
  0076c	b9 0c 00 00 00	 mov	 ecx, 12
  00771	f3 a4		 rep movsb
  00773	0f 57 db	 xorps	 xmm3, xmm3
  00776	f3 0f 10 15 00
	00 00 00	 movss	 xmm2, DWORD PTR __real@41200000
  0077e	0f 57 c9	 xorps	 xmm1, xmm1
  00781	48 8d 8c 24 f0
	02 00 00	 lea	 rcx, QWORD PTR $T59[rsp]
  00789	e8 00 00 00 00	 call	 ?V3@@YA?ATv3@@MMM@Z	; V3
  0078e	48 8d 8c 24 80
	0c 00 00	 lea	 rcx, QWORD PTR $T102[rsp]
  00796	48 8b f9	 mov	 rdi, rcx
  00799	48 8b f0	 mov	 rsi, rax
  0079c	b9 0c 00 00 00	 mov	 ecx, 12
  007a1	f3 a4		 rep movsb
  007a3	48 8d 84 24 60
	0e 00 00	 lea	 rax, QWORD PTR $T117[rsp]
  007ab	48 8b f8	 mov	 rdi, rax
  007ae	33 c0		 xor	 eax, eax
  007b0	b9 40 00 00 00	 mov	 ecx, 64			; 00000040H
  007b5	f3 aa		 rep stosb
  007b7	48 8d 84 24 40
	01 00 00	 lea	 rax, QWORD PTR $T32[rsp]
  007bf	48 8d 8c 24 a0
	0c 00 00	 lea	 rcx, QWORD PTR $T104[rsp]
  007c7	48 8b f8	 mov	 rdi, rax
  007ca	48 8b f1	 mov	 rsi, rcx
  007cd	b9 0c 00 00 00	 mov	 ecx, 12
  007d2	f3 a4		 rep movsb
  007d4	48 8d 84 24 50
	01 00 00	 lea	 rax, QWORD PTR $T33[rsp]
  007dc	48 8d 8c 24 90
	0c 00 00	 lea	 rcx, QWORD PTR $T103[rsp]
  007e4	48 8b f8	 mov	 rdi, rax
  007e7	48 8b f1	 mov	 rsi, rcx
  007ea	b9 0c 00 00 00	 mov	 ecx, 12
  007ef	f3 a4		 rep movsb
  007f1	48 8d 84 24 60
	01 00 00	 lea	 rax, QWORD PTR $T34[rsp]
  007f9	48 8d 8c 24 80
	0c 00 00	 lea	 rcx, QWORD PTR $T102[rsp]
  00801	48 8b f8	 mov	 rdi, rax
  00804	48 8b f1	 mov	 rsi, rcx
  00807	b9 0c 00 00 00	 mov	 ecx, 12
  0080c	f3 a4		 rep movsb
  0080e	48 8d 84 24 b0
	04 00 00	 lea	 rax, QWORD PTR $T77[rsp]
  00816	48 8d 8c 24 60
	0e 00 00	 lea	 rcx, QWORD PTR $T117[rsp]
  0081e	48 8b f8	 mov	 rdi, rax
  00821	48 8b f1	 mov	 rsi, rcx
  00824	b9 40 00 00 00	 mov	 ecx, 64			; 00000040H
  00829	f3 a4		 rep movsb
  0082b	48 c7 44 24 40
	00 00 00 00	 mov	 QWORD PTR [rsp+64], 0
  00834	48 8d 05 00 00
	00 00		 lea	 rax, OFFSET FLAT:?RunPlayer@@YAXPEAUentity@@M@Z ; RunPlayer
  0083b	48 89 44 24 38	 mov	 QWORD PTR [rsp+56], rax
  00840	48 8d 84 24 40
	01 00 00	 lea	 rax, QWORD PTR $T32[rsp]
  00848	48 89 44 24 30	 mov	 QWORD PTR [rsp+48], rax
  0084d	48 8d 84 24 50
	01 00 00	 lea	 rax, QWORD PTR $T33[rsp]
  00855	48 89 44 24 28	 mov	 QWORD PTR [rsp+40], rax
  0085a	48 8d 84 24 60
	01 00 00	 lea	 rax, QWORD PTR $T34[rsp]
  00862	48 89 44 24 20	 mov	 QWORD PTR [rsp+32], rax
  00867	45 33 c9	 xor	 r9d, r9d
  0086a	4c 8d 84 24 b0
	04 00 00	 lea	 r8, QWORD PTR $T77[rsp]
  00872	33 d2		 xor	 edx, edx
  00874	33 c9		 xor	 ecx, ecx
  00876	e8 00 00 00 00	 call	 ?CreateEntity@@YAPEAUentity@@PEAU1@HUpoint_light@@W4model_asset_id@@Tv3@@33P6AX0M@ZP6AX00@Z@Z ; CreateEntity
  0087b	48 89 84 24 a0
	00 00 00	 mov	 QWORD PTR Player$14[rsp], rax

; 342  :         CreateEntity(Player, false, {}, MID_BEAN, V3(0.0f, 0.0f, 0.0f), V3(1.0f, 1.0f, 1.0f), {}, 0, OnCollidePlayer);

  00883	48 8d 84 24 70
	0c 00 00	 lea	 rax, QWORD PTR $T101[rsp]
  0088b	48 8b f8	 mov	 rdi, rax
  0088e	33 c0		 xor	 eax, eax
  00890	b9 0c 00 00 00	 mov	 ecx, 12
  00895	f3 aa		 rep stosb
  00897	f3 0f 10 1d 00
	00 00 00	 movss	 xmm3, DWORD PTR __real@3f800000
  0089f	f3 0f 10 15 00
	00 00 00	 movss	 xmm2, DWORD PTR __real@3f800000
  008a7	f3 0f 10 0d 00
	00 00 00	 movss	 xmm1, DWORD PTR __real@3f800000
  008af	48 8d 8c 24 a0
	02 00 00	 lea	 rcx, QWORD PTR $T54[rsp]
  008b7	e8 00 00 00 00	 call	 ?V3@@YA?ATv3@@MMM@Z	; V3
  008bc	48 8d 8c 24 60
	0c 00 00	 lea	 rcx, QWORD PTR $T100[rsp]
  008c4	48 8b f9	 mov	 rdi, rcx
  008c7	48 8b f0	 mov	 rsi, rax
  008ca	b9 0c 00 00 00	 mov	 ecx, 12
  008cf	f3 a4		 rep movsb
  008d1	0f 57 db	 xorps	 xmm3, xmm3
  008d4	0f 57 d2	 xorps	 xmm2, xmm2
  008d7	0f 57 c9	 xorps	 xmm1, xmm1
  008da	48 8d 8c 24 18
	03 00 00	 lea	 rcx, QWORD PTR $T61[rsp]
  008e2	e8 00 00 00 00	 call	 ?V3@@YA?ATv3@@MMM@Z	; V3
  008e7	48 8d 8c 24 50
	0c 00 00	 lea	 rcx, QWORD PTR $T99[rsp]
  008ef	48 8b f9	 mov	 rdi, rcx
  008f2	48 8b f0	 mov	 rsi, rax
  008f5	b9 0c 00 00 00	 mov	 ecx, 12
  008fa	f3 a4		 rep movsb
  008fc	48 8d 84 24 e0
	0d 00 00	 lea	 rax, QWORD PTR $T115[rsp]
  00904	48 8b f8	 mov	 rdi, rax
  00907	33 c0		 xor	 eax, eax
  00909	b9 40 00 00 00	 mov	 ecx, 64			; 00000040H
  0090e	f3 aa		 rep stosb
  00910	48 8d 84 24 a0
	01 00 00	 lea	 rax, QWORD PTR $T38[rsp]
  00918	48 8d 8c 24 70
	0c 00 00	 lea	 rcx, QWORD PTR $T101[rsp]
  00920	48 8b f8	 mov	 rdi, rax
  00923	48 8b f1	 mov	 rsi, rcx
  00926	b9 0c 00 00 00	 mov	 ecx, 12
  0092b	f3 a4		 rep movsb
  0092d	48 8d 84 24 b0
	01 00 00	 lea	 rax, QWORD PTR $T39[rsp]
  00935	48 8d 8c 24 60
	0c 00 00	 lea	 rcx, QWORD PTR $T100[rsp]
  0093d	48 8b f8	 mov	 rdi, rax
  00940	48 8b f1	 mov	 rsi, rcx
  00943	b9 0c 00 00 00	 mov	 ecx, 12
  00948	f3 a4		 rep movsb
  0094a	48 8d 84 24 c0
	01 00 00	 lea	 rax, QWORD PTR $T40[rsp]
  00952	48 8d 8c 24 50
	0c 00 00	 lea	 rcx, QWORD PTR $T99[rsp]
  0095a	48 8b f8	 mov	 rdi, rax
  0095d	48 8b f1	 mov	 rsi, rcx
  00960	b9 0c 00 00 00	 mov	 ecx, 12
  00965	f3 a4		 rep movsb
  00967	48 8d 84 24 70
	04 00 00	 lea	 rax, QWORD PTR $T76[rsp]
  0096f	48 8d 8c 24 e0
	0d 00 00	 lea	 rcx, QWORD PTR $T115[rsp]
  00977	48 8b f8	 mov	 rdi, rax
  0097a	48 8b f1	 mov	 rsi, rcx
  0097d	b9 40 00 00 00	 mov	 ecx, 64			; 00000040H
  00982	f3 a4		 rep movsb
  00984	48 8d 05 00 00
	00 00		 lea	 rax, OFFSET FLAT:?OnCollidePlayer@@YAXPEAUentity@@0@Z ; OnCollidePlayer
  0098b	48 89 44 24 40	 mov	 QWORD PTR [rsp+64], rax
  00990	48 c7 44 24 38
	00 00 00 00	 mov	 QWORD PTR [rsp+56], 0
  00999	48 8d 84 24 a0
	01 00 00	 lea	 rax, QWORD PTR $T38[rsp]
  009a1	48 89 44 24 30	 mov	 QWORD PTR [rsp+48], rax
  009a6	48 8d 84 24 b0
	01 00 00	 lea	 rax, QWORD PTR $T39[rsp]
  009ae	48 89 44 24 28	 mov	 QWORD PTR [rsp+40], rax
  009b3	48 8d 84 24 c0
	01 00 00	 lea	 rax, QWORD PTR $T40[rsp]
  009bb	48 89 44 24 20	 mov	 QWORD PTR [rsp+32], rax
  009c0	41 b9 01 00 00
	00		 mov	 r9d, 1
  009c6	4c 8d 84 24 70
	04 00 00	 lea	 r8, QWORD PTR $T76[rsp]
  009ce	33 d2		 xor	 edx, edx
  009d0	48 8b 8c 24 a0
	00 00 00	 mov	 rcx, QWORD PTR Player$14[rsp]
  009d8	e8 00 00 00 00	 call	 ?CreateEntity@@YAPEAUentity@@PEAU1@HUpoint_light@@W4model_asset_id@@Tv3@@33P6AX0M@ZP6AX00@Z@Z ; CreateEntity

; 343  :         
; 344  :         InitializeCamera(&Player->Camera, Player->Position, Player->Position, Player->Position, 60, 0.01f, 100.0f);

  009dd	48 8d 84 24 00
	02 00 00	 lea	 rax, QWORD PTR $T44[rsp]
  009e5	48 8b 8c 24 a0
	00 00 00	 mov	 rcx, QWORD PTR Player$14[rsp]
  009ed	48 8b f8	 mov	 rdi, rax
  009f0	48 8d 71 18	 lea	 rsi, QWORD PTR [rcx+24]
  009f4	b9 0c 00 00 00	 mov	 ecx, 12
  009f9	f3 a4		 rep movsb
  009fb	48 8d 84 24 10
	02 00 00	 lea	 rax, QWORD PTR $T45[rsp]
  00a03	48 8b 8c 24 a0
	00 00 00	 mov	 rcx, QWORD PTR Player$14[rsp]
  00a0b	48 8b f8	 mov	 rdi, rax
  00a0e	48 8d 71 18	 lea	 rsi, QWORD PTR [rcx+24]
  00a12	b9 0c 00 00 00	 mov	 ecx, 12
  00a17	f3 a4		 rep movsb
  00a19	48 8d 84 24 30
	01 00 00	 lea	 rax, QWORD PTR $T31[rsp]
  00a21	48 8b 8c 24 a0
	00 00 00	 mov	 rcx, QWORD PTR Player$14[rsp]
  00a29	48 8b f8	 mov	 rdi, rax
  00a2c	48 8d 71 18	 lea	 rsi, QWORD PTR [rcx+24]
  00a30	b9 0c 00 00 00	 mov	 ecx, 12
  00a35	f3 a4		 rep movsb
  00a37	48 8b 84 24 a0
	00 00 00	 mov	 rax, QWORD PTR Player$14[rsp]
  00a3f	48 05 98 00 00
	00		 add	 rax, 152		; 00000098H
  00a45	f3 0f 10 05 00
	00 00 00	 movss	 xmm0, DWORD PTR __real@42c80000
  00a4d	f3 0f 11 44 24
	30		 movss	 DWORD PTR [rsp+48], xmm0
  00a53	f3 0f 10 05 00
	00 00 00	 movss	 xmm0, DWORD PTR __real@3c23d70a
  00a5b	f3 0f 11 44 24
	28		 movss	 DWORD PTR [rsp+40], xmm0
  00a61	f3 0f 10 05 00
	00 00 00	 movss	 xmm0, DWORD PTR __real@42700000
  00a69	f3 0f 11 44 24
	20		 movss	 DWORD PTR [rsp+32], xmm0
  00a6f	4c 8d 8c 24 00
	02 00 00	 lea	 r9, QWORD PTR $T44[rsp]
  00a77	4c 8d 84 24 10
	02 00 00	 lea	 r8, QWORD PTR $T45[rsp]
  00a7f	48 8d 94 24 30
	01 00 00	 lea	 rdx, QWORD PTR $T31[rsp]
  00a87	48 8b c8	 mov	 rcx, rax
  00a8a	e8 00 00 00 00	 call	 ?InitializeCamera@@YAXPEAUcamera@@Tv3@@11MMM@Z ; InitializeCamera

; 345  :         State->Camera = &Player->Camera;

  00a8f	48 8b 84 24 a0
	00 00 00	 mov	 rax, QWORD PTR Player$14[rsp]
  00a97	48 05 98 00 00
	00		 add	 rax, 152		; 00000098H
  00a9d	48 8b 0d 00 00
	00 00		 mov	 rcx, QWORD PTR ?State@@3PEAUgame_state@@EA
  00aa4	48 89 81 f8 00
	00 00		 mov	 QWORD PTR [rcx+248], rax

; 346  :         
; 347  :         State->DirLight.Direction = V3(-0.2f, -1.0f, -0.3f);

  00aab	f3 0f 10 1d 00
	00 00 00	 movss	 xmm3, DWORD PTR __real@be99999a
  00ab3	f3 0f 10 15 00
	00 00 00	 movss	 xmm2, DWORD PTR __real@bf800000
  00abb	f3 0f 10 0d 00
	00 00 00	 movss	 xmm1, DWORD PTR __real@be4ccccd
  00ac3	48 8d 8c 24 28
	03 00 00	 lea	 rcx, QWORD PTR $T62[rsp]
  00acb	e8 00 00 00 00	 call	 ?V3@@YA?ATv3@@MMM@Z	; V3
  00ad0	48 8d 8c 24 e0
	0b 00 00	 lea	 rcx, QWORD PTR $T92[rsp]
  00ad8	48 8b f9	 mov	 rdi, rcx
  00adb	48 8b f0	 mov	 rsi, rax
  00ade	b9 0c 00 00 00	 mov	 ecx, 12
  00ae3	f3 a4		 rep movsb
  00ae5	48 8b 05 00 00
	00 00		 mov	 rax, QWORD PTR ?State@@3PEAUgame_state@@EA
  00aec	48 8d 8c 24 e0
	0b 00 00	 lea	 rcx, QWORD PTR $T92[rsp]
  00af4	48 8d b8 b4 00
	00 00		 lea	 rdi, QWORD PTR [rax+180]
  00afb	48 8b f1	 mov	 rsi, rcx
  00afe	b9 0c 00 00 00	 mov	 ecx, 12
  00b03	f3 a4		 rep movsb

; 348  :         State->DirLight.Ambient = V3(0.1f, 0.1f, 0.1f);

  00b05	f3 0f 10 1d 00
	00 00 00	 movss	 xmm3, DWORD PTR __real@3dcccccd
  00b0d	f3 0f 10 15 00
	00 00 00	 movss	 xmm2, DWORD PTR __real@3dcccccd
  00b15	f3 0f 10 0d 00
	00 00 00	 movss	 xmm1, DWORD PTR __real@3dcccccd
  00b1d	48 8d 8c 24 38
	03 00 00	 lea	 rcx, QWORD PTR $T63[rsp]
  00b25	e8 00 00 00 00	 call	 ?V3@@YA?ATv3@@MMM@Z	; V3
  00b2a	48 8d 8c 24 d0
	0b 00 00	 lea	 rcx, QWORD PTR $T91[rsp]
  00b32	48 8b f9	 mov	 rdi, rcx
  00b35	48 8b f0	 mov	 rsi, rax
  00b38	b9 0c 00 00 00	 mov	 ecx, 12
  00b3d	f3 a4		 rep movsb
  00b3f	48 8b 05 00 00
	00 00		 mov	 rax, QWORD PTR ?State@@3PEAUgame_state@@EA
  00b46	48 8d 8c 24 d0
	0b 00 00	 lea	 rcx, QWORD PTR $T91[rsp]
  00b4e	48 8d b8 c4 00
	00 00		 lea	 rdi, QWORD PTR [rax+196]
  00b55	48 8b f1	 mov	 rsi, rcx
  00b58	b9 0c 00 00 00	 mov	 ecx, 12
  00b5d	f3 a4		 rep movsb

; 349  :         State->DirLight.Diffuse = V3(0.3f, 0.3f, 0.3f);

  00b5f	f3 0f 10 1d 00
	00 00 00	 movss	 xmm3, DWORD PTR __real@3e99999a
  00b67	f3 0f 10 15 00
	00 00 00	 movss	 xmm2, DWORD PTR __real@3e99999a
  00b6f	f3 0f 10 0d 00
	00 00 00	 movss	 xmm1, DWORD PTR __real@3e99999a
  00b77	48 8d 8c 24 48
	03 00 00	 lea	 rcx, QWORD PTR $T64[rsp]
  00b7f	e8 00 00 00 00	 call	 ?V3@@YA?ATv3@@MMM@Z	; V3
  00b84	48 8d 8c 24 e0
	0c 00 00	 lea	 rcx, QWORD PTR $T108[rsp]
  00b8c	48 8b f9	 mov	 rdi, rcx
  00b8f	48 8b f0	 mov	 rsi, rax
  00b92	b9 0c 00 00 00	 mov	 ecx, 12
  00b97	f3 a4		 rep movsb
  00b99	48 8b 05 00 00
	00 00		 mov	 rax, QWORD PTR ?State@@3PEAUgame_state@@EA
  00ba0	48 8d 8c 24 e0
	0c 00 00	 lea	 rcx, QWORD PTR $T108[rsp]
  00ba8	48 8d b8 d4 00
	00 00		 lea	 rdi, QWORD PTR [rax+212]
  00baf	48 8b f1	 mov	 rsi, rcx
  00bb2	b9 0c 00 00 00	 mov	 ecx, 12
  00bb7	f3 a4		 rep movsb

; 350  :         
; 351  :         {
; 352  :             point_light Light;
; 353  :             Light.Position = V3(0.0f, 3.0f, 0.0f);

  00bb9	0f 57 db	 xorps	 xmm3, xmm3
  00bbc	f3 0f 10 15 00
	00 00 00	 movss	 xmm2, DWORD PTR __real@40400000
  00bc4	0f 57 c9	 xorps	 xmm1, xmm1
  00bc7	48 8d 8c 24 58
	03 00 00	 lea	 rcx, QWORD PTR $T65[rsp]
  00bcf	e8 00 00 00 00	 call	 ?V3@@YA?ATv3@@MMM@Z	; V3
  00bd4	48 8d 8c 24 40
	0c 00 00	 lea	 rcx, QWORD PTR $T98[rsp]
  00bdc	48 8b f9	 mov	 rdi, rcx
  00bdf	48 8b f0	 mov	 rsi, rax
  00be2	b9 0c 00 00 00	 mov	 ecx, 12
  00be7	f3 a4		 rep movsb
  00be9	48 8d 84 24 20
	0d 00 00	 lea	 rax, QWORD PTR Light$112[rsp]
  00bf1	48 8d 8c 24 40
	0c 00 00	 lea	 rcx, QWORD PTR $T98[rsp]
  00bf9	48 8b f8	 mov	 rdi, rax
  00bfc	48 8b f1	 mov	 rsi, rcx
  00bff	b9 0c 00 00 00	 mov	 ecx, 12
  00c04	f3 a4		 rep movsb

; 354  :             Light.Constant = 0.1f;

  00c06	f3 0f 10 05 00
	00 00 00	 movss	 xmm0, DWORD PTR __real@3dcccccd
  00c0e	f3 0f 11 84 24
	30 0d 00 00	 movss	 DWORD PTR Light$112[rsp+16], xmm0

; 355  :             Light.Linear = 0.9f;

  00c17	f3 0f 10 05 00
	00 00 00	 movss	 xmm0, DWORD PTR __real@3f666666
  00c1f	f3 0f 11 84 24
	34 0d 00 00	 movss	 DWORD PTR Light$112[rsp+20], xmm0

; 356  :             Light.Quadratic = 0.08f;

  00c28	f3 0f 10 05 00
	00 00 00	 movss	 xmm0, DWORD PTR __real@3da3d70a
  00c30	f3 0f 11 84 24
	38 0d 00 00	 movss	 DWORD PTR Light$112[rsp+24], xmm0

; 357  :             Light.Ambient = V3(0.1f, 0.1f, 0.1f);

  00c39	f3 0f 10 1d 00
	00 00 00	 movss	 xmm3, DWORD PTR __real@3dcccccd
  00c41	f3 0f 10 15 00
	00 00 00	 movss	 xmm2, DWORD PTR __real@3dcccccd
  00c49	f3 0f 10 0d 00
	00 00 00	 movss	 xmm1, DWORD PTR __real@3dcccccd
  00c51	48 8d 8c 24 68
	03 00 00	 lea	 rcx, QWORD PTR $T66[rsp]
  00c59	e8 00 00 00 00	 call	 ?V3@@YA?ATv3@@MMM@Z	; V3
  00c5e	48 8d 8c 24 30
	0c 00 00	 lea	 rcx, QWORD PTR $T97[rsp]
  00c66	48 8b f9	 mov	 rdi, rcx
  00c69	48 8b f0	 mov	 rsi, rax
  00c6c	b9 0c 00 00 00	 mov	 ecx, 12
  00c71	f3 a4		 rep movsb
  00c73	48 8d 84 24 40
	0d 00 00	 lea	 rax, QWORD PTR Light$112[rsp+32]
  00c7b	48 8d 8c 24 30
	0c 00 00	 lea	 rcx, QWORD PTR $T97[rsp]
  00c83	48 8b f8	 mov	 rdi, rax
  00c86	48 8b f1	 mov	 rsi, rcx
  00c89	b9 0c 00 00 00	 mov	 ecx, 12
  00c8e	f3 a4		 rep movsb

; 358  :             Light.Diffuse = V3(0.8f, 0.8f, 0.8f);

  00c90	f3 0f 10 1d 00
	00 00 00	 movss	 xmm3, DWORD PTR __real@3f4ccccd
  00c98	f3 0f 10 15 00
	00 00 00	 movss	 xmm2, DWORD PTR __real@3f4ccccd
  00ca0	f3 0f 10 0d 00
	00 00 00	 movss	 xmm1, DWORD PTR __real@3f4ccccd
  00ca8	48 8d 8c 24 78
	03 00 00	 lea	 rcx, QWORD PTR $T67[rsp]
  00cb0	e8 00 00 00 00	 call	 ?V3@@YA?ATv3@@MMM@Z	; V3
  00cb5	48 8d 8c 24 20
	0c 00 00	 lea	 rcx, QWORD PTR $T96[rsp]
  00cbd	48 8b f9	 mov	 rdi, rcx
  00cc0	48 8b f0	 mov	 rsi, rax
  00cc3	b9 0c 00 00 00	 mov	 ecx, 12
  00cc8	f3 a4		 rep movsb
  00cca	48 8d 84 24 50
	0d 00 00	 lea	 rax, QWORD PTR Light$112[rsp+48]
  00cd2	48 8d 8c 24 20
	0c 00 00	 lea	 rcx, QWORD PTR $T96[rsp]
  00cda	48 8b f8	 mov	 rdi, rax
  00cdd	48 8b f1	 mov	 rsi, rcx
  00ce0	b9 0c 00 00 00	 mov	 ecx, 12
  00ce5	f3 a4		 rep movsb

; 359  :             State->PointLight = CreateEntity(0, true, Light, MID_SPHERE,

  00ce7	0f 57 db	 xorps	 xmm3, xmm3
  00cea	0f 57 d2	 xorps	 xmm2, xmm2
  00ced	0f 57 c9	 xorps	 xmm1, xmm1
  00cf0	48 8d 8c 24 88
	03 00 00	 lea	 rcx, QWORD PTR $T68[rsp]
  00cf8	e8 00 00 00 00	 call	 ?V3@@YA?ATv3@@MMM@Z	; V3
  00cfd	48 8d 8c 24 10
	0c 00 00	 lea	 rcx, QWORD PTR $T95[rsp]
  00d05	48 8b f9	 mov	 rdi, rcx
  00d08	48 8b f0	 mov	 rsi, rax
  00d0b	b9 0c 00 00 00	 mov	 ecx, 12
  00d10	f3 a4		 rep movsb
  00d12	f3 0f 10 1d 00
	00 00 00	 movss	 xmm3, DWORD PTR __real@3f800000
  00d1a	f3 0f 10 15 00
	00 00 00	 movss	 xmm2, DWORD PTR __real@3f800000
  00d22	f3 0f 10 0d 00
	00 00 00	 movss	 xmm1, DWORD PTR __real@3f800000
  00d2a	48 8d 8c 24 b0
	02 00 00	 lea	 rcx, QWORD PTR $T55[rsp]
  00d32	e8 00 00 00 00	 call	 ?V3@@YA?ATv3@@MMM@Z	; V3
  00d37	48 8d 8c 24 00
	0c 00 00	 lea	 rcx, QWORD PTR $T94[rsp]
  00d3f	48 8b f9	 mov	 rdi, rcx
  00d42	48 8b f0	 mov	 rsi, rax
  00d45	b9 0c 00 00 00	 mov	 ecx, 12
  00d4a	f3 a4		 rep movsb
  00d4c	0f 57 db	 xorps	 xmm3, xmm3
  00d4f	f3 0f 10 15 00
	00 00 00	 movss	 xmm2, DWORD PTR __real@40400000
  00d57	0f 57 c9	 xorps	 xmm1, xmm1
  00d5a	48 8d 8c 24 c0
	02 00 00	 lea	 rcx, QWORD PTR $T56[rsp]
  00d62	e8 00 00 00 00	 call	 ?V3@@YA?ATv3@@MMM@Z	; V3
  00d67	48 8d 8c 24 f0
	0b 00 00	 lea	 rcx, QWORD PTR $T93[rsp]
  00d6f	48 8b f9	 mov	 rdi, rcx
  00d72	48 8b f0	 mov	 rsi, rax
  00d75	b9 0c 00 00 00	 mov	 ecx, 12
  00d7a	f3 a4		 rep movsb
  00d7c	48 8d 84 24 70
	01 00 00	 lea	 rax, QWORD PTR $T35[rsp]
  00d84	48 8d 8c 24 10
	0c 00 00	 lea	 rcx, QWORD PTR $T95[rsp]
  00d8c	48 8b f8	 mov	 rdi, rax
  00d8f	48 8b f1	 mov	 rsi, rcx
  00d92	b9 0c 00 00 00	 mov	 ecx, 12
  00d97	f3 a4		 rep movsb
  00d99	48 8d 84 24 80
	01 00 00	 lea	 rax, QWORD PTR $T36[rsp]
  00da1	48 8d 8c 24 00
	0c 00 00	 lea	 rcx, QWORD PTR $T94[rsp]
  00da9	48 8b f8	 mov	 rdi, rax
  00dac	48 8b f1	 mov	 rsi, rcx
  00daf	b9 0c 00 00 00	 mov	 ecx, 12
  00db4	f3 a4		 rep movsb
  00db6	48 8d 84 24 90
	01 00 00	 lea	 rax, QWORD PTR $T37[rsp]
  00dbe	48 8d 8c 24 f0
	0b 00 00	 lea	 rcx, QWORD PTR $T93[rsp]
  00dc6	48 8b f8	 mov	 rdi, rax
  00dc9	48 8b f1	 mov	 rsi, rcx
  00dcc	b9 0c 00 00 00	 mov	 ecx, 12
  00dd1	f3 a4		 rep movsb
  00dd3	48 8d 84 24 30
	04 00 00	 lea	 rax, QWORD PTR $T75[rsp]
  00ddb	48 8d 8c 24 20
	0d 00 00	 lea	 rcx, QWORD PTR Light$112[rsp]
  00de3	48 8b f8	 mov	 rdi, rax
  00de6	48 8b f1	 mov	 rsi, rcx
  00de9	b9 40 00 00 00	 mov	 ecx, 64			; 00000040H
  00dee	f3 a4		 rep movsb
  00df0	48 c7 44 24 40
	00 00 00 00	 mov	 QWORD PTR [rsp+64], 0
  00df9	48 c7 44 24 38
	00 00 00 00	 mov	 QWORD PTR [rsp+56], 0
  00e02	48 8d 84 24 70
	01 00 00	 lea	 rax, QWORD PTR $T35[rsp]
  00e0a	48 89 44 24 30	 mov	 QWORD PTR [rsp+48], rax
  00e0f	48 8d 84 24 80
	01 00 00	 lea	 rax, QWORD PTR $T36[rsp]
  00e17	48 89 44 24 28	 mov	 QWORD PTR [rsp+40], rax
  00e1c	48 8d 84 24 90
	01 00 00	 lea	 rax, QWORD PTR $T37[rsp]
  00e24	48 89 44 24 20	 mov	 QWORD PTR [rsp+32], rax
  00e29	41 b9 02 00 00
	00		 mov	 r9d, 2
  00e2f	4c 8d 84 24 30
	04 00 00	 lea	 r8, QWORD PTR $T75[rsp]
  00e37	ba 01 00 00 00	 mov	 edx, 1
  00e3c	33 c9		 xor	 ecx, ecx
  00e3e	e8 00 00 00 00	 call	 ?CreateEntity@@YAPEAUentity@@PEAU1@HUpoint_light@@W4model_asset_id@@Tv3@@33P6AX0M@ZP6AX00@Z@Z ; CreateEntity
  00e43	48 8b 0d 00 00
	00 00		 mov	 rcx, QWORD PTR ?State@@3PEAUgame_state@@EA
  00e4a	48 89 81 e8 00
	00 00		 mov	 QWORD PTR [rcx+232], rax

; 360  :                                              V3(0.0f, 3.0f, 0.0f), V3(1.0f, 1.0f, 1.0f), V3(0.0f, 0.0f, 0.0f));
; 361  :         }
; 362  :         
; 363  :         State->BasicShader = Platform->CreateShader(L"../code/shaders.hlsl", false);

  00e51	33 d2		 xor	 edx, edx
  00e53	48 8d 0d 00 00
	00 00		 lea	 rcx, OFFSET FLAT:$SG46652
  00e5a	48 8b 05 00 00
	00 00		 mov	 rax, QWORD PTR ?Platform@@3PEAUplatform_api@@EA
  00e61	ff 50 48	 call	 QWORD PTR [rax+72]
  00e64	48 8b 0d 00 00
	00 00		 mov	 rcx, QWORD PTR ?State@@3PEAUgame_state@@EA
  00e6b	48 89 81 10 01
	00 00		 mov	 QWORD PTR [rcx+272], rax

; 364  :         State->UIShader = Platform->CreateShader(L"../code/ui_shaders.hlsl", true);

  00e72	ba 01 00 00 00	 mov	 edx, 1
  00e77	48 8d 0d 00 00
	00 00		 lea	 rcx, OFFSET FLAT:$SG46653
  00e7e	48 8b 05 00 00
	00 00		 mov	 rax, QWORD PTR ?Platform@@3PEAUplatform_api@@EA
  00e85	ff 50 48	 call	 QWORD PTR [rax+72]
  00e88	48 8b 0d 00 00
	00 00		 mov	 rcx, QWORD PTR ?State@@3PEAUgame_state@@EA
  00e8f	48 89 81 18 01
	00 00		 mov	 QWORD PTR [rcx+280], rax

; 365  :         
; 366  :         State->DevMode = false;

  00e96	48 8b 05 00 00
	00 00		 mov	 rax, QWORD PTR ?State@@3PEAUgame_state@@EA
  00e9d	c7 80 38 01 00
	00 00 00 00 00	 mov	 DWORD PTR [rax+312], 0

; 367  :         State->SelectedUI = -1;

  00ea7	48 8b 05 00 00
	00 00		 mov	 rax, QWORD PTR ?State@@3PEAUgame_state@@EA
  00eae	c7 80 70 1a 00
	00 ff ff ff ff	 mov	 DWORD PTR [rax+6768], -1

; 368  :         State->EditorMode = EDITOR_MODE_NONE;

  00eb8	48 8b 05 00 00
	00 00		 mov	 rax, QWORD PTR ?State@@3PEAUgame_state@@EA
  00ebf	c7 80 3c 01 00
	00 00 00 00 00	 mov	 DWORD PTR [rax+316], 0

; 369  :         
; 370  :         TranState->IsInitialized = true;

  00ec9	48 8b 05 00 00
	00 00		 mov	 rax, QWORD PTR ?TranState@@3PEAUtransient_state@@EA
  00ed0	c7 00 01 00 00
	00		 mov	 DWORD PTR [rax], 1
$LN20@GameUpdate:

; 371  :     }
; 372  :     //
; 373  :     //
; 374  :     //
; 375  :     State->WindowDimension = WindowDimension;

  00ed6	48 8b 05 00 00
	00 00		 mov	 rax, QWORD PTR ?State@@3PEAUgame_state@@EA
  00edd	48 8b 8c 24 e8
	0f 00 00	 mov	 rcx, QWORD PTR WindowDimension$[rsp]
  00ee5	48 89 88 ac 00
	00 00		 mov	 QWORD PTR [rax+172], rcx

; 376  :     
; 377  :     for(s32 EntityIndex = 0;

  00eec	c7 44 24 70 00
	00 00 00	 mov	 DWORD PTR EntityIndex$4[rsp], 0
  00ef4	eb 0a		 jmp	 SHORT $LN4@GameUpdate
$LN2@GameUpdate:

; 379  :         ++EntityIndex)

  00ef6	8b 44 24 70	 mov	 eax, DWORD PTR EntityIndex$4[rsp]
  00efa	ff c0		 inc	 eax
  00efc	89 44 24 70	 mov	 DWORD PTR EntityIndex$4[rsp], eax
$LN4@GameUpdate:

; 378  :         EntityIndex < TranState->EntityCount;

  00f00	48 8b 05 00 00
	00 00		 mov	 rax, QWORD PTR ?TranState@@3PEAUtransient_state@@EA
  00f07	8b 80 c8 6c 00
	00		 mov	 eax, DWORD PTR [rax+27848]
  00f0d	39 44 24 70	 cmp	 DWORD PTR EntityIndex$4[rsp], eax
  00f11	7d 5b		 jge	 SHORT $LN3@GameUpdate

; 380  :     {
; 381  :         entity *Entity = &TranState->Entities[EntityIndex];

  00f13	48 63 44 24 70	 movsxd	 rax, DWORD PTR EntityIndex$4[rsp]
  00f18	48 69 c0 d8 00
	00 00		 imul	 rax, rax, 216		; 000000d8H
  00f1f	48 8b 0d 00 00
	00 00		 mov	 rcx, QWORD PTR ?TranState@@3PEAUtransient_state@@EA
  00f26	48 8d 84 01 c8
	00 00 00	 lea	 rax, QWORD PTR [rcx+rax+200]
  00f2e	48 89 84 24 e8
	00 00 00	 mov	 QWORD PTR Entity$21[rsp], rax

; 382  :         if(Entity && Entity->RunEntity)

  00f36	48 83 bc 24 e8
	00 00 00 00	 cmp	 QWORD PTR Entity$21[rsp], 0
  00f3f	74 2b		 je	 SHORT $LN21@GameUpdate
  00f41	48 8b 84 24 e8
	00 00 00	 mov	 rax, QWORD PTR Entity$21[rsp]
  00f49	48 83 78 08 00	 cmp	 QWORD PTR [rax+8], 0
  00f4e	74 1c		 je	 SHORT $LN21@GameUpdate

; 383  :         {
; 384  :             Entity->RunEntity(Entity, DeltaTime);

  00f50	f3 0f 10 8c 24
	00 10 00 00	 movss	 xmm1, DWORD PTR DeltaTime$[rsp]
  00f59	48 8b 8c 24 e8
	00 00 00	 mov	 rcx, QWORD PTR Entity$21[rsp]
  00f61	48 8b 84 24 e8
	00 00 00	 mov	 rax, QWORD PTR Entity$21[rsp]
  00f69	ff 50 08	 call	 QWORD PTR [rax+8]
$LN21@GameUpdate:

; 385  :         }
; 386  :     }

  00f6c	eb 88		 jmp	 SHORT $LN2@GameUpdate
$LN3@GameUpdate:

; 387  :     
; 388  :     if(Input->Keyboard.Space && !State->LastInput.Keyboard.Space &&

  00f6e	48 8b 05 00 00
	00 00		 mov	 rax, QWORD PTR ?Input@@3PEAUgame_input@@EA
  00f75	83 78 40 00	 cmp	 DWORD PTR [rax+64], 0
  00f79	74 59		 je	 SHORT $LN22@GameUpdate
  00f7b	48 8b 05 00 00
	00 00		 mov	 rax, QWORD PTR ?State@@3PEAUgame_state@@EA
  00f82	83 78 40 00	 cmp	 DWORD PTR [rax+64], 0
  00f86	75 4c		 jne	 SHORT $LN22@GameUpdate
  00f88	48 8b 05 00 00
	00 00		 mov	 rax, QWORD PTR ?State@@3PEAUgame_state@@EA
  00f8f	83 b8 3c 01 00
	00 00		 cmp	 DWORD PTR [rax+316], 0
  00f96	75 3c		 jne	 SHORT $LN22@GameUpdate

; 389  :        State->EditorMode == EDITOR_MODE_NONE)
; 390  :     {
; 391  :         State->DevMode = !State->DevMode;

  00f98	48 8b 05 00 00
	00 00		 mov	 rax, QWORD PTR ?State@@3PEAUgame_state@@EA
  00f9f	83 b8 38 01 00
	00 00		 cmp	 DWORD PTR [rax+312], 0
  00fa6	75 0d		 jne	 SHORT $LN60@GameUpdate
  00fa8	c7 84 24 b8 00
	00 00 01 00 00
	00		 mov	 DWORD PTR tv512[rsp], 1
  00fb3	eb 0b		 jmp	 SHORT $LN61@GameUpdate
$LN60@GameUpdate:
  00fb5	c7 84 24 b8 00
	00 00 00 00 00
	00		 mov	 DWORD PTR tv512[rsp], 0
$LN61@GameUpdate:
  00fc0	48 8b 05 00 00
	00 00		 mov	 rax, QWORD PTR ?State@@3PEAUgame_state@@EA
  00fc7	8b 8c 24 b8 00
	00 00		 mov	 ecx, DWORD PTR tv512[rsp]
  00fce	89 88 38 01 00
	00		 mov	 DWORD PTR [rax+312], ecx
$LN22@GameUpdate:

; 392  :     }
; 393  :     
; 394  :     if(Input->Keyboard.AltF4 || (WindowFlags & WINDOW_FLAGS_CLOSED))

  00fd4	48 8b 05 00 00
	00 00		 mov	 rax, QWORD PTR ?Input@@3PEAUgame_input@@EA
  00fdb	83 78 54 00	 cmp	 DWORD PTR [rax+84], 0
  00fdf	75 0e		 jne	 SHORT $LN24@GameUpdate
  00fe1	8b 84 24 e0 0f
	00 00		 mov	 eax, DWORD PTR WindowFlags$[rsp]
  00fe8	83 e0 01	 and	 eax, 1
  00feb	85 c0		 test	 eax, eax
  00fed	74 0a		 je	 SHORT $LN23@GameUpdate
$LN24@GameUpdate:

; 395  :     {
; 396  :         ShouldClose = true;

  00fef	c7 05 00 00 00
	00 01 00 00 00	 mov	 DWORD PTR ?ShouldClose@@3HA, 1
$LN23@GameUpdate:

; 397  :     }
; 398  :     
; 399  :     if(State->DevMode && State->EditorMode == EDITOR_MODE_NONE &&
; 400  :        Input->Keyboard.One && !State->LastInput.Keyboard.One)

  00ff9	48 8b 05 00 00
	00 00		 mov	 rax, QWORD PTR ?State@@3PEAUgame_state@@EA
  01000	83 b8 38 01 00
	00 00		 cmp	 DWORD PTR [rax+312], 0
  01007	0f 84 30 01 00
	00		 je	 $LN25@GameUpdate
  0100d	48 8b 05 00 00
	00 00		 mov	 rax, QWORD PTR ?State@@3PEAUgame_state@@EA
  01014	83 b8 3c 01 00
	00 00		 cmp	 DWORD PTR [rax+316], 0
  0101b	0f 85 1c 01 00
	00		 jne	 $LN25@GameUpdate
  01021	48 8b 05 00 00
	00 00		 mov	 rax, QWORD PTR ?Input@@3PEAUgame_input@@EA
  01028	83 78 48 00	 cmp	 DWORD PTR [rax+72], 0
  0102c	0f 84 0b 01 00
	00		 je	 $LN25@GameUpdate
  01032	48 8b 05 00 00
	00 00		 mov	 rax, QWORD PTR ?State@@3PEAUgame_state@@EA
  01039	83 78 48 00	 cmp	 DWORD PTR [rax+72], 0
  0103d	0f 85 fa 00 00
	00		 jne	 $LN25@GameUpdate

; 401  :     {
; 402  :         for(s32 UIIndex = 0;

  01043	c7 44 24 74 00
	00 00 00	 mov	 DWORD PTR UIIndex$5[rsp], 0
  0104b	eb 0a		 jmp	 SHORT $LN7@GameUpdate
$LN5@GameUpdate:

; 404  :             ++UIIndex)

  0104d	8b 44 24 74	 mov	 eax, DWORD PTR UIIndex$5[rsp]
  01051	ff c0		 inc	 eax
  01053	89 44 24 74	 mov	 DWORD PTR UIIndex$5[rsp], eax
$LN7@GameUpdate:

; 403  :             UIIndex < MAX_UI_COUNT;

  01057	83 7c 24 74 20	 cmp	 DWORD PTR UIIndex$5[rsp], 32 ; 00000020H
  0105c	0f 8d db 00 00
	00		 jge	 $LN6@GameUpdate

; 405  :         {
; 406  :             ui_element *UI = &State->UIElements[UIIndex];

  01062	48 63 44 24 74	 movsxd	 rax, DWORD PTR UIIndex$5[rsp]
  01067	48 69 c0 b0 00
	00 00		 imul	 rax, rax, 176		; 000000b0H
  0106e	48 8b 0d 00 00
	00 00		 mov	 rcx, QWORD PTR ?State@@3PEAUgame_state@@EA
  01075	48 8d 84 01 70
	04 00 00	 lea	 rax, QWORD PTR [rcx+rax+1136]
  0107d	48 89 84 24 98
	00 00 00	 mov	 QWORD PTR UI$13[rsp], rax

; 407  :             
; 408  :             if(UI->IsActive)

  01085	48 8b 84 24 98
	00 00 00	 mov	 rax, QWORD PTR UI$13[rsp]
  0108d	83 38 00	 cmp	 DWORD PTR [rax], 0
  01090	74 02		 je	 SHORT $LN26@GameUpdate

; 409  :             {
; 410  :                 continue;

  01092	eb b9		 jmp	 SHORT $LN5@GameUpdate
$LN26@GameUpdate:

; 411  :             }
; 412  :             
; 413  :             UI->IsActive = true;

  01094	48 8b 84 24 98
	00 00 00	 mov	 rax, QWORD PTR UI$13[rsp]
  0109c	c7 00 01 00 00
	00		 mov	 DWORD PTR [rax], 1

; 414  :             UI->Image = GetImageAsset(IID_SMILE);

  010a2	b9 01 00 00 00	 mov	 ecx, 1
  010a7	e8 00 00 00 00	 call	 ?GetImageAsset@@YAPEAUloaded_image@@W4image_asset_id@@@Z ; GetImageAsset
  010ac	48 8b 8c 24 98
	00 00 00	 mov	 rcx, QWORD PTR UI$13[rsp]
  010b4	48 89 41 08	 mov	 QWORD PTR [rcx+8], rax

; 415  :             UI->Position.x = (f32)Input->Mouse.X;

  010b8	48 8b 05 00 00
	00 00		 mov	 rax, QWORD PTR ?Input@@3PEAUgame_input@@EA
  010bf	f3 0f 2a 40 64	 cvtsi2ss xmm0, DWORD PTR [rax+100]
  010c4	48 8b 84 24 98
	00 00 00	 mov	 rax, QWORD PTR UI$13[rsp]
  010cc	f3 0f 11 80 90
	00 00 00	 movss	 DWORD PTR [rax+144], xmm0

; 416  :             UI->Position.y = (f32)Input->Mouse.Y;

  010d4	48 8b 05 00 00
	00 00		 mov	 rax, QWORD PTR ?Input@@3PEAUgame_input@@EA
  010db	f3 0f 2a 40 6c	 cvtsi2ss xmm0, DWORD PTR [rax+108]
  010e0	48 8b 84 24 98
	00 00 00	 mov	 rax, QWORD PTR UI$13[rsp]
  010e8	f3 0f 11 80 94
	00 00 00	 movss	 DWORD PTR [rax+148], xmm0

; 417  :             UI->Scale = V2(0.25f, 0.25f);

  010f0	f3 0f 10 0d 00
	00 00 00	 movss	 xmm1, DWORD PTR __real@3e800000
  010f8	f3 0f 10 05 00
	00 00 00	 movss	 xmm0, DWORD PTR __real@3e800000
  01100	e8 00 00 00 00	 call	 ?V2@@YA?ATv2@@MM@Z	; V2
  01105	48 89 84 24 c0
	0b 00 00	 mov	 QWORD PTR $T89[rsp], rax
  0110d	48 8b 84 24 98
	00 00 00	 mov	 rax, QWORD PTR UI$13[rsp]
  01115	48 8b 8c 24 c0
	0b 00 00	 mov	 rcx, QWORD PTR $T89[rsp]
  0111d	48 89 88 98 00
	00 00		 mov	 QWORD PTR [rax+152], rcx

; 418  :             UI->Type = UI_NONE;

  01124	48 8b 84 24 98
	00 00 00	 mov	 rax, QWORD PTR UI$13[rsp]
  0112c	c7 80 a8 00 00
	00 00 00 00 00	 mov	 DWORD PTR [rax+168], 0

; 419  :             
; 420  :             break;

  01136	eb 05		 jmp	 SHORT $LN6@GameUpdate

; 421  :         }

  01138	e9 10 ff ff ff	 jmp	 $LN5@GameUpdate
$LN6@GameUpdate:
$LN25@GameUpdate:

; 422  :     }
; 423  :     
; 424  :     if(State->DevMode && State->EditorMode == EDITOR_MODE_NONE &&
; 425  :        Input->Keyboard.Two && !State->LastInput.Keyboard.Two)

  0113d	48 8b 05 00 00
	00 00		 mov	 rax, QWORD PTR ?State@@3PEAUgame_state@@EA
  01144	83 b8 38 01 00
	00 00		 cmp	 DWORD PTR [rax+312], 0
  0114b	0f 84 17 01 00
	00		 je	 $LN27@GameUpdate
  01151	48 8b 05 00 00
	00 00		 mov	 rax, QWORD PTR ?State@@3PEAUgame_state@@EA
  01158	83 b8 3c 01 00
	00 00		 cmp	 DWORD PTR [rax+316], 0
  0115f	0f 85 03 01 00
	00		 jne	 $LN27@GameUpdate
  01165	48 8b 05 00 00
	00 00		 mov	 rax, QWORD PTR ?Input@@3PEAUgame_input@@EA
  0116c	83 78 4c 00	 cmp	 DWORD PTR [rax+76], 0
  01170	0f 84 f2 00 00
	00		 je	 $LN27@GameUpdate
  01176	48 8b 05 00 00
	00 00		 mov	 rax, QWORD PTR ?State@@3PEAUgame_state@@EA
  0117d	83 78 4c 00	 cmp	 DWORD PTR [rax+76], 0
  01181	0f 85 e1 00 00
	00		 jne	 $LN27@GameUpdate

; 426  :     {
; 427  :         for(s32 UIIndex = 0;

  01187	c7 44 24 78 00
	00 00 00	 mov	 DWORD PTR UIIndex$6[rsp], 0
  0118f	eb 0a		 jmp	 SHORT $LN10@GameUpdate
$LN8@GameUpdate:

; 429  :             ++UIIndex)

  01191	8b 44 24 78	 mov	 eax, DWORD PTR UIIndex$6[rsp]
  01195	ff c0		 inc	 eax
  01197	89 44 24 78	 mov	 DWORD PTR UIIndex$6[rsp], eax
$LN10@GameUpdate:

; 428  :             UIIndex < MAX_UI_COUNT;

  0119b	83 7c 24 78 20	 cmp	 DWORD PTR UIIndex$6[rsp], 32 ; 00000020H
  011a0	0f 8d c2 00 00
	00		 jge	 $LN9@GameUpdate

; 430  :         {
; 431  :             ui_element *UI = &State->UIElements[UIIndex];

  011a6	48 63 44 24 78	 movsxd	 rax, DWORD PTR UIIndex$6[rsp]
